EXPORTS 
	??_R0?AV?$CallbackException@VLogicError@curlpp@@@curlpp@@@8 	 DATA
	??_R0?AV?$CallbackException@VUnknowException@curlpp@@@curlpp@@@8 	 DATA
	??_R0?AV?$Option@PEAV?$basic_ostream@DU?$char_traits@D@std@@@std@@@curlpp@@@8 	 DATA
	??_R0?AV?$OptionTrait@PEAV?$basic_ostream@DU?$char_traits@D@std@@@std@@$0CHBB@@curlpp@@@8 	 DATA
	??_R0?AVCallbackExceptionBase@curlpp@@@8 	 DATA
	??_R0?AVContent@FormParts@curlpp@@@8 	 DATA
	??_R0?AVCurlHandle@internal@curlpp@@@8 	 DATA
	??_R0?AVEasy@curlpp@@@8 	 DATA
	??_R0?AVFile@FormParts@curlpp@@@8 	 DATA
	??_R0?AVFormPart@curlpp@@@8 	 DATA
	??_R0?AVLibcurlLogicError@curlpp@@@8 	 DATA
	??_R0?AVLibcurlRuntimeError@curlpp@@@8 	 DATA
	??_R0?AVLogicError@curlpp@@@8 	 DATA
	??_R0?AVNotAvailable@curlpp@@@8 	 DATA
	??_R0?AVOptionBase@curlpp@@@8 	 DATA
	??_R0?AVOptionList@internal@curlpp@@@8 	 DATA
	??_R0?AVRuntimeError@curlpp@@@8 	 DATA
	??_R0?AVUnknowException@curlpp@@@8 	 DATA
	??_R0?AVUnsetOption@curlpp@@@8 	 DATA
	??_R0?AVbad_alloc@std@@@8 	 DATA
	??_R0?AVbad_array_new_length@std@@@8 	 DATA
	??_R0?AVexception@std@@@8 	 DATA
	??_R0?AVlogic_error@std@@@8 	 DATA
	??_R0?AVruntime_error@std@@@8 	 DATA
	??_R0PEAVCallbackExceptionBase@curlpp@@@8 	 DATA
	??$?0$$V@?$_Compressed_pair@V?$allocator@D@std@@V?$_String_val@U?$_Simple_types@D@std@@@2@$00@std@@QEAA@U_Zero_then_variadic_args_t@1@@Z
	??$?0$$V@?$_Compressed_pair@V?$allocator@U?$_List_node@U?$pair@PEBVEasy@curlpp@@UInfo@Multi@2@@std@@PEAX@std@@@std@@V?$_List_val@U?$_List_simple_types@U?$pair@PEBVEasy@curlpp@@UInfo@Multi@2@@std@@@std@@@2@$00@std@@QEAA@U_Zero_then_variadic_args_t@1@@Z
	??$?0$$V@?$_Compressed_pair@V?$allocator@U?$_List_node@V?$basic_string@DU?$char_traits@D@std@@V?$allocator@D@2@@std@@PEAX@std@@@std@@V?$_List_val@U?$_List_simple_types@V?$basic_string@DU?$char_traits@D@std@@V?$allocator@D@2@@std@@@std@@@2@$00@std@@QEAA@U_Zero_then_variadic_args_t@1@@Z
	??$?0$$V@?$_Compressed_pair@V?$allocator@U?$_List_node@V?$clone_ptr@VFormPart@curlpp@@@utilspp@@PEAX@std@@@std@@V?$_List_val@U?$_List_simple_types@V?$clone_ptr@VFormPart@curlpp@@@utilspp@@@std@@@2@$00@std@@QEAA@U_Zero_then_variadic_args_t@1@@Z
	??$?0$$V@?$_Compressed_pair@V?$allocator@U?$_Tree_node@U?$pair@$$CBW4CURLoption@@PEAVOptionBase@curlpp@@@std@@PEAX@std@@@std@@V?$_Tree_val@U?$_Tree_simple_types@U?$pair@$$CBW4CURLoption@@PEAVOptionBase@curlpp@@@std@@@std@@@2@$00@std@@QEAA@U_Zero_then_variadic_args_t@1@@Z
	??$?0$$V@?$_Compressed_pair@V?$allocator@U?$_Tree_node@U?$pair@QEAXPEBVEasy@curlpp@@@std@@PEAX@std@@@std@@V?$_Tree_val@U?$_Tree_simple_types@U?$pair@QEAXPEBVEasy@curlpp@@@std@@@std@@@2@$00@std@@QEAA@U_Zero_then_variadic_args_t@1@@Z
	??$?0AEAPEAU?$_Tree_node@U?$pair@$$CBW4CURLoption@@PEAVOptionBase@curlpp@@@std@@PEAX@std@@_N$0A@@?$pair@PEAU?$_Tree_node@U?$pair@$$CBW4CURLoption@@PEAVOptionBase@curlpp@@@std@@PEAX@std@@_N@std@@QEAA@AEAPEAU?$_Tree_node@U?$pair@$$CBW4CURLoption@@PEAVOptionBase@curlpp@@@std@@PEAX@1@$$QEA_N@Z
	??$?0AEAPEAU?$_Tree_node@U?$pair@QEAXPEBVEasy@curlpp@@@std@@PEAX@std@@AEAPEAU01@$0A@@?$pair@PEAU?$_Tree_node@U?$pair@QEAXPEBVEasy@curlpp@@@std@@PEAX@std@@PEAU12@@std@@QEAA@AEAPEAU?$_Tree_node@U?$pair@QEAXPEBVEasy@curlpp@@@std@@PEAX@1@0@Z
	??$?0AEAPEAU?$_Tree_node@U?$pair@QEAXPEBVEasy@curlpp@@@std@@PEAX@std@@_N$0A@@?$pair@PEAU?$_Tree_node@U?$pair@QEAXPEBVEasy@curlpp@@@std@@PEAX@std@@_N@std@@QEAA@AEAPEAU?$_Tree_node@U?$pair@QEAXPEBVEasy@curlpp@@@std@@PEAX@1@$$QEA_N@Z
	??$?0AEAPEAVCallbackExceptionBase@curlpp@@@?$_Compressed_pair@U?$default_delete@VCallbackExceptionBase@curlpp@@@std@@PEAVCallbackExceptionBase@curlpp@@$00@std@@QEAA@U_Zero_then_variadic_args_t@1@AEAPEAVCallbackExceptionBase@curlpp@@@Z
	??$?0AEAPEAVCurlHandle@internal@curlpp@@@?$_Compressed_pair@U?$default_delete@VCurlHandle@internal@curlpp@@@std@@PEAVCurlHandle@internal@curlpp@@$00@std@@QEAA@U_Zero_then_variadic_args_t@1@AEAPEAVCurlHandle@internal@curlpp@@@Z
	??$?0AEAPEBVEasy@curlpp@@AEAUInfo@Multi@1@$0A@@?$pair@PEBVEasy@curlpp@@UInfo@Multi@2@@std@@QEAA@AEAPEBVEasy@curlpp@@AEAUInfo@Multi@3@@Z
	??$?0AEBQEAU?$_Tree_node@U?$pair@QEAXPEBVEasy@curlpp@@@std@@PEAX@std@@_N$0A@@?$pair@PEAU?$_Tree_node@U?$pair@QEAXPEBVEasy@curlpp@@@std@@PEAX@std@@_N@std@@QEAA@AEBQEAU?$_Tree_node@U?$pair@QEAXPEBVEasy@curlpp@@@std@@PEAX@1@$$QEA_N@Z
	??$?0AEBQEAX$$Z$$V@?$pair@QEAXPEBVEasy@curlpp@@@std@@QEAA@Upiecewise_construct_t@1@V?$tuple@AEBQEAX@1@V?$tuple@$$V@1@@Z
	??$?0AEBQEAX$0A@@?$tuple@AEBQEAX@std@@QEAA@AEBQEAX@Z
	??$?0AEBQEAX@?$_Tuple_val@AEBQEAX@std@@QEAA@AEBQEAX@Z
	??$?0AEBU?$less@PEAX@std@@U_Zero_then_variadic_args_t@1@@?$_Compressed_pair@U?$less@PEAX@std@@V?$_Compressed_pair@V?$allocator@U?$_Tree_node@U?$pair@QEAXPEBVEasy@curlpp@@@std@@PEAX@std@@@std@@V?$_Tree_val@U?$_Tree_simple_types@U?$pair@QEAXPEBVEasy@curlpp@@@std@@@std@@@2@$00@2@$00@std@@QEAA@U_One_then_variadic_args_t@1@AEBU?$less@PEAX@1@$$QEAU_Zero_then_variadic_args_t@1@@Z
	??$?0AEBU?$less@W4CURLoption@@@std@@U_Zero_then_variadic_args_t@1@@?$_Compressed_pair@U?$less@W4CURLoption@@@std@@V?$_Compressed_pair@V?$allocator@U?$_Tree_node@U?$pair@$$CBW4CURLoption@@PEAVOptionBase@curlpp@@@std@@PEAX@std@@@std@@V?$_Tree_val@U?$_Tree_simple_types@U?$pair@$$CBW4CURLoption@@PEAVOptionBase@curlpp@@@std@@@std@@@2@$00@2@$00@std@@QEAA@U_One_then_variadic_args_t@1@AEBU?$less@W4CURLoption@@@1@$$QEAU_Zero_then_variadic_args_t@1@@Z
	??$?0AEBUpiecewise_construct_t@std@@V?$tuple@AEBQEAX@1@V?$tuple@$$V@1@@?$_Tree_temp_node@V?$allocator@U?$_Tree_node@U?$pair@QEAXPEBVEasy@curlpp@@@std@@PEAX@std@@@std@@@std@@QEAA@AEAV?$allocator@U?$_Tree_node@U?$pair@QEAXPEBVEasy@curlpp@@@std@@PEAX@std@@@1@PEAU?$_Tree_node@U?$pair@QEAXPEBVEasy@curlpp@@@std@@PEAX@1@AEBUpiecewise_construct_t@1@$$QEAV?$tuple@AEBQEAX@1@$$QEAV?$tuple@$$V@1@@Z
	??$?0AEBV?$clone_ptr@VFormPart@curlpp@@@utilspp@@@?$_List_node_emplace_op2@V?$allocator@U?$_List_node@V?$clone_ptr@VFormPart@curlpp@@@utilspp@@PEAX@std@@@std@@@std@@QEAA@AEAV?$allocator@U?$_List_node@V?$clone_ptr@VFormPart@curlpp@@@utilspp@@PEAX@std@@@1@AEBV?$clone_ptr@VFormPart@curlpp@@@utilspp@@@Z
	??$?0PEAU?$_Tree_node@U?$pair@$$CBW4CURLoption@@PEAVOptionBase@curlpp@@@std@@PEAX@std@@_N$0A@@?$pair@PEAU?$_Tree_node@U?$pair@$$CBW4CURLoption@@PEAVOptionBase@curlpp@@@std@@PEAX@std@@_N@std@@QEAA@$$QEAPEAU?$_Tree_node@U?$pair@$$CBW4CURLoption@@PEAVOptionBase@curlpp@@@std@@PEAX@1@$$QEA_N@Z
	??$?0PEAU?$_Tree_node@U?$pair@QEAXPEBVEasy@curlpp@@@std@@PEAX@std@@_N$0A@@?$pair@PEAU?$_Tree_node@U?$pair@QEAXPEBVEasy@curlpp@@@std@@PEAX@std@@_N@std@@QEAA@$$QEAPEAU?$_Tree_node@U?$pair@QEAXPEBVEasy@curlpp@@@std@@PEAX@1@$$QEA_N@Z
	??$?0PEAXAEAPEBVEasy@curlpp@@$0A@@?$pair@PEAXPEBVEasy@curlpp@@@std@@QEAA@$$QEAPEAXAEAPEBVEasy@curlpp@@@Z
	??$?0PEAXPEBVEasy@curlpp@@$0A@@?$pair@QEAXPEBVEasy@curlpp@@@std@@QEAA@$$QEAU?$pair@PEAXPEBVEasy@curlpp@@@1@@Z
	??$?0U?$default_delete@VCallbackExceptionBase@curlpp@@@std@@$0A@@?$unique_ptr@VCallbackExceptionBase@curlpp@@U?$default_delete@VCallbackExceptionBase@curlpp@@@std@@@std@@QEAA@PEAVCallbackExceptionBase@curlpp@@@Z
	??$?0U?$default_delete@VCurlHandle@internal@curlpp@@@std@@$0A@@?$unique_ptr@VCurlHandle@internal@curlpp@@U?$default_delete@VCurlHandle@internal@curlpp@@@std@@@std@@QEAA@$$QEAV01@@Z
	??$?0U?$default_delete@VCurlHandle@internal@curlpp@@@std@@$0A@@?$unique_ptr@VCurlHandle@internal@curlpp@@U?$default_delete@VCurlHandle@internal@curlpp@@@std@@@std@@QEAA@PEAVCurlHandle@internal@curlpp@@@Z
	??$?0U?$default_delete@VCurlHandle@internal@curlpp@@@std@@PEAVCurlHandle@internal@curlpp@@@?$_Compressed_pair@U?$default_delete@VCurlHandle@internal@curlpp@@@std@@PEAVCurlHandle@internal@curlpp@@$00@std@@QEAA@U_One_then_variadic_args_t@1@$$QEAU?$default_delete@VCurlHandle@internal@curlpp@@@1@$$QEAPEAVCurlHandle@internal@curlpp@@@Z
	??$?0U?$pair@PEAXPEBVEasy@curlpp@@@std@@@?$_Tree_temp_node@V?$allocator@U?$_Tree_node@U?$pair@QEAXPEBVEasy@curlpp@@@std@@PEAX@std@@@std@@@std@@QEAA@AEAV?$allocator@U?$_Tree_node@U?$pair@QEAXPEBVEasy@curlpp@@@std@@PEAX@std@@@1@PEAU?$_Tree_node@U?$pair@QEAXPEBVEasy@curlpp@@@std@@PEAX@1@$$QEAU?$pair@PEAXPEBVEasy@curlpp@@@1@@Z
	??$?0U?$pair@PEBVEasy@curlpp@@UInfo@Multi@2@@std@@@?$_List_node_emplace_op2@V?$allocator@U?$_List_node@U?$pair@PEBVEasy@curlpp@@UInfo@Multi@2@@std@@PEAX@std@@@std@@@std@@QEAA@AEAV?$allocator@U?$_List_node@U?$pair@PEBVEasy@curlpp@@UInfo@Multi@2@@std@@PEAX@std@@@1@$$QEAU?$pair@PEBVEasy@curlpp@@UInfo@Multi@2@@1@@Z
	??$?0U?$pair@W4CURLoption@@PEAVOptionBase@curlpp@@@std@@@?$_Tree_temp_node@V?$allocator@U?$_Tree_node@U?$pair@$$CBW4CURLoption@@PEAVOptionBase@curlpp@@@std@@PEAX@std@@@std@@@std@@QEAA@AEAV?$allocator@U?$_Tree_node@U?$pair@$$CBW4CURLoption@@PEAVOptionBase@curlpp@@@std@@PEAX@std@@@1@PEAU?$_Tree_node@U?$pair@$$CBW4CURLoption@@PEAVOptionBase@curlpp@@@std@@PEAX@1@$$QEAU?$pair@W4CURLoption@@PEAVOptionBase@curlpp@@@1@@Z
	??$?0U_Exact_args_t@std@@$0A@@?$tuple@$$V@std@@QEAA@U_Exact_args_t@1@@Z
	??$?0U_Exact_args_t@std@@AEBQEAX$$V$0A@@?$tuple@AEBQEAX@std@@QEAA@U_Exact_args_t@1@AEBQEAX@Z
	??$?0V?$_Tree_iterator@V?$_Tree_val@U?$_Tree_simple_types@U?$pair@$$CBW4CURLoption@@PEAVOptionBase@curlpp@@@std@@@std@@@std@@@std@@AEB_N$0A@@?$pair@V?$_Tree_iterator@V?$_Tree_val@U?$_Tree_simple_types@U?$pair@$$CBW4CURLoption@@PEAVOptionBase@curlpp@@@std@@@std@@@std@@@std@@_N@std@@QEAA@$$QEAV?$_Tree_iterator@V?$_Tree_val@U?$_Tree_simple_types@U?$pair@$$CBW4CURLoption@@PEAVOptionBase@curlpp@@@std@@@std@@@std@@@1@AEB_N@Z
	??$?0V?$_Tree_iterator@V?$_Tree_val@U?$_Tree_simple_types@U?$pair@QEAXPEBVEasy@curlpp@@@std@@@std@@@std@@@std@@AEB_N$0A@@?$pair@V?$_Tree_iterator@V?$_Tree_val@U?$_Tree_simple_types@U?$pair@QEAXPEBVEasy@curlpp@@@std@@@std@@@std@@@std@@_N@std@@QEAA@$$QEAV?$_Tree_iterator@V?$_Tree_val@U?$_Tree_simple_types@U?$pair@QEAXPEBVEasy@curlpp@@@std@@@std@@@std@@@1@AEB_N@Z
	??$?0V?$allocator@D@std@@$$V@?$_Compressed_pair@V?$allocator@D@std@@V?$_String_val@U?$_Simple_types@D@std@@@2@$00@std@@QEAA@U_One_then_variadic_args_t@1@$$QEAV?$allocator@D@1@@Z
	??$?0V?$allocator@U?$_List_node@U?$pair@PEBVEasy@curlpp@@UInfo@Multi@2@@std@@PEAX@std@@@std@@$$V@?$_Compressed_pair@V?$allocator@U?$_List_node@U?$pair@PEBVEasy@curlpp@@UInfo@Multi@2@@std@@PEAX@std@@@std@@V?$_List_val@U?$_List_simple_types@U?$pair@PEBVEasy@curlpp@@UInfo@Multi@2@@std@@@std@@@2@$00@std@@QEAA@U_One_then_variadic_args_t@1@$$QEAV?$allocator@U?$_List_node@U?$pair@PEBVEasy@curlpp@@UInfo@Multi@2@@std@@PEAX@std@@@1@@Z
	??$?0V?$allocator@U?$_List_node@V?$basic_string@DU?$char_traits@D@std@@V?$allocator@D@2@@std@@PEAX@std@@@std@@$$V@?$_Compressed_pair@V?$allocator@U?$_List_node@V?$basic_string@DU?$char_traits@D@std@@V?$allocator@D@2@@std@@PEAX@std@@@std@@V?$_List_val@U?$_List_simple_types@V?$basic_string@DU?$char_traits@D@std@@V?$allocator@D@2@@std@@@std@@@2@$00@std@@QEAA@U_One_then_variadic_args_t@1@$$QEAV?$allocator@U?$_List_node@V?$basic_string@DU?$char_traits@D@std@@V?$allocator@D@2@@std@@PEAX@std@@@1@@Z
	??$?0V?$allocator@U?$_List_node@V?$clone_ptr@VFormPart@curlpp@@@utilspp@@PEAX@std@@@std@@$$V@?$_Compressed_pair@V?$allocator@U?$_List_node@V?$clone_ptr@VFormPart@curlpp@@@utilspp@@PEAX@std@@@std@@V?$_List_val@U?$_List_simple_types@V?$clone_ptr@VFormPart@curlpp@@@utilspp@@@std@@@2@$00@std@@QEAA@U_One_then_variadic_args_t@1@$$QEAV?$allocator@U?$_List_node@V?$clone_ptr@VFormPart@curlpp@@@utilspp@@PEAX@std@@@1@@Z
	??$?0V?$basic_string@DU?$char_traits@D@std@@V?$allocator@D@2@@std@@@?$_List_node_emplace_op2@V?$allocator@U?$_List_node@V?$basic_string@DU?$char_traits@D@std@@V?$allocator@D@2@@std@@PEAX@std@@@std@@@std@@QEAA@AEAV?$allocator@U?$_List_node@V?$basic_string@DU?$char_traits@D@std@@V?$allocator@D@2@@std@@PEAX@std@@@1@$$QEAV?$basic_string@DU?$char_traits@D@std@@V?$allocator@D@2@@1@@Z
	??$?0V?$tuple@AEBQEAX@std@@V?$tuple@$$V@1@$0A@$$Z$S@?$pair@QEAXPEBVEasy@curlpp@@@std@@QEAA@AEAV?$tuple@AEBQEAX@1@AEAV?$tuple@$$V@1@U?$integer_sequence@_K$0A@@1@U?$integer_sequence@_K$S@1@@Z
	??$?0W4CURLoption@@AEAPEAVOptionBase@curlpp@@$0A@@?$pair@W4CURLoption@@PEAVOptionBase@curlpp@@@std@@QEAA@$$QEAW4CURLoption@@AEAPEAVOptionBase@curlpp@@@Z
	??$?0W4CURLoption@@PEAVOptionBase@curlpp@@$0A@@?$pair@$$CBW4CURLoption@@PEAVOptionBase@curlpp@@@std@@QEAA@$$QEAU?$pair@W4CURLoption@@PEAVOptionBase@curlpp@@@1@@Z
	??$?0W4CURLoption@@PEAVOptionBase@curlpp@@$0A@@?$pair@W4CURLoption@@PEAVOptionBase@curlpp@@@std@@QEAA@$$QEAW4CURLoption@@$$QEAPEAVOptionBase@curlpp@@@Z
	??$?6DU?$char_traits@D@std@@V?$allocator@D@1@@std@@YAAEAV?$basic_ostream@DU?$char_traits@D@std@@@0@AEAV10@AEBV?$basic_string@DU?$char_traits@D@std@@V?$allocator@D@2@@0@@Z
	??$?6U?$char_traits@D@std@@@std@@YAAEAV?$basic_ostream@DU?$char_traits@D@std@@@0@AEAV10@PEBD@Z
	??$_Adl_verify_range@V?$_List_unchecked_const_iterator@V?$_List_val@U?$_List_simple_types@V?$basic_string@DU?$char_traits@D@std@@V?$allocator@D@2@@std@@@std@@@std@@U_Iterator_base0@2@@std@@V12@@std@@YAXAEBV?$_List_unchecked_const_iterator@V?$_List_val@U?$_List_simple_types@V?$basic_string@DU?$char_traits@D@std@@V?$allocator@D@2@@std@@@std@@@std@@U_Iterator_base0@2@@0@0@Z
	??$_Adl_verify_range@V?$_Tree_unchecked_const_iterator@V?$_Tree_val@U?$_Tree_simple_types@U?$pair@QEAXPEBVEasy@curlpp@@@std@@@std@@@std@@U_Iterator_base0@2@@std@@V12@@std@@YAXAEBV?$_Tree_unchecked_const_iterator@V?$_Tree_val@U?$_Tree_simple_types@U?$pair@QEAXPEBVEasy@curlpp@@@std@@@std@@@std@@U_Iterator_base0@2@@0@0@Z
	??$_Allocate@$0BA@U_Default_allocate_traits@std@@@std@@YAPEAX_K@Z
	??$_Allocate_at_least_helper@V?$allocator@D@std@@@std@@YAPEADAEAV?$allocator@D@0@AEA_K@Z
	??$_Allocate_for_capacity@$0A@@?$basic_string@DU?$char_traits@D@std@@V?$allocator@D@2@@std@@CAPEADAEAV?$allocator@D@1@AEA_K@Z
	??$_Allocate_manually_vector_aligned@U_Default_allocate_traits@std@@@std@@YAPEAX_K@Z
	??$_Append_range_unchecked@V?$_List_unchecked_const_iterator@V?$_List_val@U?$_List_simple_types@V?$basic_string@DU?$char_traits@D@std@@V?$allocator@D@2@@std@@@std@@@std@@U_Iterator_base0@2@@std@@V12@@?$_List_node_insert_op2@V?$allocator@U?$_List_node@V?$basic_string@DU?$char_traits@D@std@@V?$allocator@D@2@@std@@PEAX@std@@@std@@@std@@QEAAXV?$_List_unchecked_const_iterator@V?$_List_val@U?$_List_simple_types@V?$basic_string@DU?$char_traits@D@std@@V?$allocator@D@2@@std@@@std@@@std@@U_Iterator_base0@2@@1@V21@@Z
	??$_Assign_unchecked@V?$_List_unchecked_const_iterator@V?$_List_val@U?$_List_simple_types@V?$basic_string@DU?$char_traits@D@std@@V?$allocator@D@2@@std@@@std@@@std@@U_Iterator_base0@2@@std@@V12@@?$list@V?$basic_string@DU?$char_traits@D@std@@V?$allocator@D@2@@std@@V?$allocator@V?$basic_string@DU?$char_traits@D@std@@V?$allocator@D@2@@std@@@2@@std@@AEAAXV?$_List_unchecked_const_iterator@V?$_List_val@U?$_List_simple_types@V?$basic_string@DU?$char_traits@D@std@@V?$allocator@D@2@@std@@@std@@@std@@U_Iterator_base0@2@@1@V21@@Z
	??$_Attach_at_end@U?$_List_simple_types@V?$basic_string@DU?$char_traits@D@std@@V?$allocator@D@2@@std@@@std@@@?$_List_node_insert_op2@V?$allocator@U?$_List_node@V?$basic_string@DU?$char_traits@D@std@@V?$allocator@D@2@@std@@PEAX@std@@@std@@@std@@QEAAXAEAV?$_List_val@U?$_List_simple_types@V?$basic_string@DU?$char_traits@D@std@@V?$allocator@D@2@@std@@@std@@@1@@Z
	??$_Attach_before@U?$_List_simple_types@V?$basic_string@DU?$char_traits@D@std@@V?$allocator@D@2@@std@@@std@@@?$_List_node_insert_op2@V?$allocator@U?$_List_node@V?$basic_string@DU?$char_traits@D@std@@V?$allocator@D@2@@std@@PEAX@std@@@std@@@std@@QEAAPEAU?$_List_node@V?$basic_string@DU?$char_traits@D@std@@V?$allocator@D@2@@std@@PEAX@1@AEAV?$_List_val@U?$_List_simple_types@V?$basic_string@DU?$char_traits@D@std@@V?$allocator@D@2@@std@@@std@@@1@QEAU21@@Z
	??$_Attach_head@U?$_List_simple_types@V?$basic_string@DU?$char_traits@D@std@@V?$allocator@D@2@@std@@@std@@@?$_List_node_insert_op2@V?$allocator@U?$_List_node@V?$basic_string@DU?$char_traits@D@std@@V?$allocator@D@2@@std@@PEAX@std@@@std@@@std@@QEAAXAEAV?$_List_val@U?$_List_simple_types@V?$basic_string@DU?$char_traits@D@std@@V?$allocator@D@2@@std@@@std@@@1@@Z
	??$_Buyheadnode@V?$allocator@U?$_Tree_node@U?$pair@$$CBW4CURLoption@@PEAVOptionBase@curlpp@@@std@@PEAX@std@@@std@@@?$_Tree_node@U?$pair@$$CBW4CURLoption@@PEAVOptionBase@curlpp@@@std@@PEAX@std@@SAPEAU01@AEAV?$allocator@U?$_Tree_node@U?$pair@$$CBW4CURLoption@@PEAVOptionBase@curlpp@@@std@@PEAX@std@@@1@@Z
	??$_Buyheadnode@V?$allocator@U?$_Tree_node@U?$pair@QEAXPEBVEasy@curlpp@@@std@@PEAX@std@@@std@@@?$_Tree_node@U?$pair@QEAXPEBVEasy@curlpp@@@std@@PEAX@std@@SAPEAU01@AEAV?$allocator@U?$_Tree_node@U?$pair@QEAXPEBVEasy@curlpp@@@std@@PEAX@std@@@1@@Z
	??$_Construct@$00PEBD@?$basic_string@DU?$char_traits@D@std@@V?$allocator@D@2@@std@@AEAAXQEBD_K@Z
	??$_Construct@$01PEBD@?$basic_string@DU?$char_traits@D@std@@V?$allocator@D@2@@std@@AEAAXQEBD_K@Z
	??$_Construct_in_place@PEADAEAPEAD@std@@YAXAEAPEAD0@Z
	??$_Construct_in_place@PEADAEBQEAD@std@@YAXAEAPEADAEBQEAD@Z
	??$_Construct_in_place@PEAU?$_List_node@U?$pair@PEBVEasy@curlpp@@UInfo@Multi@2@@std@@PEAX@std@@AEAPEAU12@@std@@YAXAEAPEAU?$_List_node@U?$pair@PEBVEasy@curlpp@@UInfo@Multi@2@@std@@PEAX@0@0@Z
	??$_Construct_in_place@PEAU?$_List_node@U?$pair@PEBVEasy@curlpp@@UInfo@Multi@2@@std@@PEAX@std@@AEBQEAU12@@std@@YAXAEAPEAU?$_List_node@U?$pair@PEBVEasy@curlpp@@UInfo@Multi@2@@std@@PEAX@0@AEBQEAU10@@Z
	??$_Construct_in_place@PEAU?$_List_node@V?$basic_string@DU?$char_traits@D@std@@V?$allocator@D@2@@std@@PEAX@std@@AEAPEAU12@@std@@YAXAEAPEAU?$_List_node@V?$basic_string@DU?$char_traits@D@std@@V?$allocator@D@2@@std@@PEAX@0@0@Z
	??$_Construct_in_place@PEAU?$_List_node@V?$basic_string@DU?$char_traits@D@std@@V?$allocator@D@2@@std@@PEAX@std@@AEBQEAU12@@std@@YAXAEAPEAU?$_List_node@V?$basic_string@DU?$char_traits@D@std@@V?$allocator@D@2@@std@@PEAX@0@AEBQEAU10@@Z
	??$_Construct_in_place@PEAU?$_List_node@V?$basic_string@DU?$char_traits@D@std@@V?$allocator@D@2@@std@@PEAX@std@@PEAU12@@std@@YAXAEAPEAU?$_List_node@V?$basic_string@DU?$char_traits@D@std@@V?$allocator@D@2@@std@@PEAX@0@$$QEAPEAU10@@Z
	??$_Construct_in_place@PEAU?$_List_node@V?$clone_ptr@VFormPart@curlpp@@@utilspp@@PEAX@std@@AEAPEAU12@@std@@YAXAEAPEAU?$_List_node@V?$clone_ptr@VFormPart@curlpp@@@utilspp@@PEAX@0@0@Z
	??$_Construct_in_place@PEAU?$_List_node@V?$clone_ptr@VFormPart@curlpp@@@utilspp@@PEAX@std@@AEBQEAU12@@std@@YAXAEAPEAU?$_List_node@V?$clone_ptr@VFormPart@curlpp@@@utilspp@@PEAX@0@AEBQEAU10@@Z
	??$_Construct_in_place@PEAU?$_Tree_node@U?$pair@$$CBW4CURLoption@@PEAVOptionBase@curlpp@@@std@@PEAX@std@@AEAPEAU12@@std@@YAXAEAPEAU?$_Tree_node@U?$pair@$$CBW4CURLoption@@PEAVOptionBase@curlpp@@@std@@PEAX@0@0@Z
	??$_Construct_in_place@PEAU?$_Tree_node@U?$pair@$$CBW4CURLoption@@PEAVOptionBase@curlpp@@@std@@PEAX@std@@AEBQEAU12@@std@@YAXAEAPEAU?$_Tree_node@U?$pair@$$CBW4CURLoption@@PEAVOptionBase@curlpp@@@std@@PEAX@0@AEBQEAU10@@Z
	??$_Construct_in_place@PEAU?$_Tree_node@U?$pair@QEAXPEBVEasy@curlpp@@@std@@PEAX@std@@AEAPEAU12@@std@@YAXAEAPEAU?$_Tree_node@U?$pair@QEAXPEBVEasy@curlpp@@@std@@PEAX@0@0@Z
	??$_Construct_in_place@PEAU?$_Tree_node@U?$pair@QEAXPEBVEasy@curlpp@@@std@@PEAX@std@@AEBQEAU12@@std@@YAXAEAPEAU?$_Tree_node@U?$pair@QEAXPEBVEasy@curlpp@@@std@@PEAX@0@AEBQEAU10@@Z
	??$_Construct_range_unchecked@V?$_List_unchecked_const_iterator@V?$_List_val@U?$_List_simple_types@V?$basic_string@DU?$char_traits@D@std@@V?$allocator@D@2@@std@@@std@@@std@@U_Iterator_base0@2@@std@@V12@@?$list@V?$basic_string@DU?$char_traits@D@std@@V?$allocator@D@2@@std@@V?$allocator@V?$basic_string@DU?$char_traits@D@std@@V?$allocator@D@2@@std@@@2@@std@@AEAAXV?$_List_unchecked_const_iterator@V?$_List_val@U?$_List_simple_types@V?$basic_string@DU?$char_traits@D@std@@V?$allocator@D@2@@std@@@std@@@std@@U_Iterator_base0@2@@1@V21@@Z
	??$_Convert_size@_K_K@std@@YA_K_K@Z
	??$_Deallocate@$0BA@@std@@YAXPEAX_K@Z
	??$_Destroy_in_place@PEAD@std@@YAXAEAPEAD@Z
	??$_Destroy_in_place@PEAU?$_List_node@U?$pair@PEBVEasy@curlpp@@UInfo@Multi@2@@std@@PEAX@std@@@std@@YAXAEAPEAU?$_List_node@U?$pair@PEBVEasy@curlpp@@UInfo@Multi@2@@std@@PEAX@0@@Z
	??$_Destroy_in_place@PEAU?$_List_node@V?$basic_string@DU?$char_traits@D@std@@V?$allocator@D@2@@std@@PEAX@std@@@std@@YAXAEAPEAU?$_List_node@V?$basic_string@DU?$char_traits@D@std@@V?$allocator@D@2@@std@@PEAX@0@@Z
	??$_Destroy_in_place@PEAU?$_List_node@V?$clone_ptr@VFormPart@curlpp@@@utilspp@@PEAX@std@@@std@@YAXAEAPEAU?$_List_node@V?$clone_ptr@VFormPart@curlpp@@@utilspp@@PEAX@0@@Z
	??$_Destroy_in_place@PEAU?$_Tree_node@U?$pair@$$CBW4CURLoption@@PEAVOptionBase@curlpp@@@std@@PEAX@std@@@std@@YAXAEAPEAU?$_Tree_node@U?$pair@$$CBW4CURLoption@@PEAVOptionBase@curlpp@@@std@@PEAX@0@@Z
	??$_Destroy_in_place@PEAU?$_Tree_node@U?$pair@QEAXPEBVEasy@curlpp@@@std@@PEAX@std@@@std@@YAXAEAPEAU?$_Tree_node@U?$pair@QEAXPEBVEasy@curlpp@@@std@@PEAX@0@@Z
	??$_Emplace@AEBV?$clone_ptr@VFormPart@curlpp@@@utilspp@@@?$list@V?$clone_ptr@VFormPart@curlpp@@@utilspp@@V?$allocator@V?$clone_ptr@VFormPart@curlpp@@@utilspp@@@std@@@std@@QEAAPEAU?$_List_node@V?$clone_ptr@VFormPart@curlpp@@@utilspp@@PEAX@1@QEAU21@AEBV?$clone_ptr@VFormPart@curlpp@@@utilspp@@@Z
	??$_Emplace@U?$pair@PEAXPEBVEasy@curlpp@@@std@@@?$_Tree@V?$_Tmap_traits@PEAXPEBVEasy@curlpp@@U?$less@PEAX@std@@V?$allocator@U?$pair@QEAXPEBVEasy@curlpp@@@std@@@4@$0A@@std@@@std@@IEAA?AU?$pair@PEAU?$_Tree_node@U?$pair@QEAXPEBVEasy@curlpp@@@std@@PEAX@std@@_N@1@$$QEAU?$pair@PEAXPEBVEasy@curlpp@@@1@@Z
	??$_Emplace@U?$pair@PEBVEasy@curlpp@@UInfo@Multi@2@@std@@@?$list@U?$pair@PEBVEasy@curlpp@@UInfo@Multi@2@@std@@V?$allocator@U?$pair@PEBVEasy@curlpp@@UInfo@Multi@2@@std@@@2@@std@@QEAAPEAU?$_List_node@U?$pair@PEBVEasy@curlpp@@UInfo@Multi@2@@std@@PEAX@1@QEAU21@$$QEAU?$pair@PEBVEasy@curlpp@@UInfo@Multi@2@@1@@Z
	??$_Emplace@U?$pair@W4CURLoption@@PEAVOptionBase@curlpp@@@std@@@?$_Tree@V?$_Tmap_traits@W4CURLoption@@PEAVOptionBase@curlpp@@U?$less@W4CURLoption@@@std@@V?$allocator@U?$pair@$$CBW4CURLoption@@PEAVOptionBase@curlpp@@@std@@@5@$0A@@std@@@std@@IEAA?AU?$pair@PEAU?$_Tree_node@U?$pair@$$CBW4CURLoption@@PEAVOptionBase@curlpp@@@std@@PEAX@std@@_N@1@$$QEAU?$pair@W4CURLoption@@PEAVOptionBase@curlpp@@@1@@Z
	??$_Emplace@V?$basic_string@DU?$char_traits@D@std@@V?$allocator@D@2@@std@@@?$list@V?$basic_string@DU?$char_traits@D@std@@V?$allocator@D@2@@std@@V?$allocator@V?$basic_string@DU?$char_traits@D@std@@V?$allocator@D@2@@std@@@2@@std@@QEAAPEAU?$_List_node@V?$basic_string@DU?$char_traits@D@std@@V?$allocator@D@2@@std@@PEAX@1@QEAU21@$$QEAV?$basic_string@DU?$char_traits@D@std@@V?$allocator@D@2@@1@@Z
	??$_Eqrange@PEAX@?$_Tree@V?$_Tmap_traits@PEAXPEBVEasy@curlpp@@U?$less@PEAX@std@@V?$allocator@U?$pair@QEAXPEBVEasy@curlpp@@@std@@@4@$0A@@std@@@std@@IEBA?AU?$pair@PEAU?$_Tree_node@U?$pair@QEAXPEBVEasy@curlpp@@@std@@PEAX@std@@PEAU12@@1@AEBQEAX@Z
	??$_Erase_head@V?$allocator@U?$_Tree_node@U?$pair@$$CBW4CURLoption@@PEAVOptionBase@curlpp@@@std@@PEAX@std@@@std@@@?$_Tree_val@U?$_Tree_simple_types@U?$pair@$$CBW4CURLoption@@PEAVOptionBase@curlpp@@@std@@@std@@@std@@QEAAXAEAV?$allocator@U?$_Tree_node@U?$pair@$$CBW4CURLoption@@PEAVOptionBase@curlpp@@@std@@PEAX@std@@@1@@Z
	??$_Erase_head@V?$allocator@U?$_Tree_node@U?$pair@QEAXPEBVEasy@curlpp@@@std@@PEAX@std@@@std@@@?$_Tree_val@U?$_Tree_simple_types@U?$pair@QEAXPEBVEasy@curlpp@@@std@@@std@@@std@@QEAAXAEAV?$allocator@U?$_Tree_node@U?$pair@QEAXPEBVEasy@curlpp@@@std@@PEAX@std@@@1@@Z
	??$_Erase_tree@V?$allocator@U?$_Tree_node@U?$pair@$$CBW4CURLoption@@PEAVOptionBase@curlpp@@@std@@PEAX@std@@@std@@@?$_Tree_val@U?$_Tree_simple_types@U?$pair@$$CBW4CURLoption@@PEAVOptionBase@curlpp@@@std@@@std@@@std@@QEAAXAEAV?$allocator@U?$_Tree_node@U?$pair@$$CBW4CURLoption@@PEAVOptionBase@curlpp@@@std@@PEAX@std@@@1@PEAU?$_Tree_node@U?$pair@$$CBW4CURLoption@@PEAVOptionBase@curlpp@@@std@@PEAX@1@@Z
	??$_Erase_tree@V?$allocator@U?$_Tree_node@U?$pair@QEAXPEBVEasy@curlpp@@@std@@PEAX@std@@@std@@@?$_Tree_val@U?$_Tree_simple_types@U?$pair@QEAXPEBVEasy@curlpp@@@std@@@std@@@std@@QEAAXAEAV?$allocator@U?$_Tree_node@U?$pair@QEAXPEBVEasy@curlpp@@@std@@PEAX@std@@@1@PEAU?$_Tree_node@U?$pair@QEAXPEBVEasy@curlpp@@@std@@PEAX@1@@Z
	??$_Find@W4CURLoption@@@?$_Tree@V?$_Tmap_traits@W4CURLoption@@PEAVOptionBase@curlpp@@U?$less@W4CURLoption@@@std@@V?$allocator@U?$pair@$$CBW4CURLoption@@PEAVOptionBase@curlpp@@@std@@@5@$0A@@std@@@std@@AEBAPEAU?$_Tree_node@U?$pair@$$CBW4CURLoption@@PEAVOptionBase@curlpp@@@std@@PEAX@1@AEBW4CURLoption@@@Z
	??$_Find_lower_bound@PEAX@?$_Tree@V?$_Tmap_traits@PEAXPEBVEasy@curlpp@@U?$less@PEAX@std@@V?$allocator@U?$pair@QEAXPEBVEasy@curlpp@@@std@@@4@$0A@@std@@@std@@IEBA?AU?$_Tree_find_result@PEAU?$_Tree_node@U?$pair@QEAXPEBVEasy@curlpp@@@std@@PEAX@std@@@1@AEBQEAX@Z
	??$_Find_lower_bound@W4CURLoption@@@?$_Tree@V?$_Tmap_traits@W4CURLoption@@PEAVOptionBase@curlpp@@U?$less@W4CURLoption@@@std@@V?$allocator@U?$pair@$$CBW4CURLoption@@PEAVOptionBase@curlpp@@@std@@@5@$0A@@std@@@std@@IEBA?AU?$_Tree_find_result@PEAU?$_Tree_node@U?$pair@$$CBW4CURLoption@@PEAVOptionBase@curlpp@@@std@@PEAX@std@@@1@AEBW4CURLoption@@@Z
	??$_Free_non_head@V?$allocator@U?$_List_node@U?$pair@PEBVEasy@curlpp@@UInfo@Multi@2@@std@@PEAX@std@@@std@@@?$_List_node@U?$pair@PEBVEasy@curlpp@@UInfo@Multi@2@@std@@PEAX@std@@SAXAEAV?$allocator@U?$_List_node@U?$pair@PEBVEasy@curlpp@@UInfo@Multi@2@@std@@PEAX@std@@@1@PEAU01@@Z
	??$_Free_non_head@V?$allocator@U?$_List_node@V?$basic_string@DU?$char_traits@D@std@@V?$allocator@D@2@@std@@PEAX@std@@@std@@@?$_List_node@V?$basic_string@DU?$char_traits@D@std@@V?$allocator@D@2@@std@@PEAX@std@@SAXAEAV?$allocator@U?$_List_node@V?$basic_string@DU?$char_traits@D@std@@V?$allocator@D@2@@std@@PEAX@std@@@1@PEAU01@@Z
	??$_Free_non_head@V?$allocator@U?$_List_node@V?$clone_ptr@VFormPart@curlpp@@@utilspp@@PEAX@std@@@std@@@?$_List_node@V?$clone_ptr@VFormPart@curlpp@@@utilspp@@PEAX@std@@SAXAEAV?$allocator@U?$_List_node@V?$clone_ptr@VFormPart@curlpp@@@utilspp@@PEAX@std@@@1@PEAU01@@Z
	??$_Freenode0@V?$allocator@U?$_List_node@U?$pair@PEBVEasy@curlpp@@UInfo@Multi@2@@std@@PEAX@std@@@std@@@?$_List_node@U?$pair@PEBVEasy@curlpp@@UInfo@Multi@2@@std@@PEAX@std@@SAXAEAV?$allocator@U?$_List_node@U?$pair@PEBVEasy@curlpp@@UInfo@Multi@2@@std@@PEAX@std@@@1@PEAU01@@Z
	??$_Freenode0@V?$allocator@U?$_List_node@V?$basic_string@DU?$char_traits@D@std@@V?$allocator@D@2@@std@@PEAX@std@@@std@@@?$_List_node@V?$basic_string@DU?$char_traits@D@std@@V?$allocator@D@2@@std@@PEAX@std@@SAXAEAV?$allocator@U?$_List_node@V?$basic_string@DU?$char_traits@D@std@@V?$allocator@D@2@@std@@PEAX@std@@@1@PEAU01@@Z
	??$_Freenode0@V?$allocator@U?$_List_node@V?$clone_ptr@VFormPart@curlpp@@@utilspp@@PEAX@std@@@std@@@?$_List_node@V?$clone_ptr@VFormPart@curlpp@@@utilspp@@PEAX@std@@SAXAEAV?$allocator@U?$_List_node@V?$clone_ptr@VFormPart@curlpp@@@utilspp@@PEAX@std@@@1@PEAU01@@Z
	??$_Freenode0@V?$allocator@U?$_Tree_node@U?$pair@$$CBW4CURLoption@@PEAVOptionBase@curlpp@@@std@@PEAX@std@@@std@@@?$_Tree_node@U?$pair@$$CBW4CURLoption@@PEAVOptionBase@curlpp@@@std@@PEAX@std@@SAXAEAV?$allocator@U?$_Tree_node@U?$pair@$$CBW4CURLoption@@PEAVOptionBase@curlpp@@@std@@PEAX@std@@@1@PEAU01@@Z
	??$_Freenode0@V?$allocator@U?$_Tree_node@U?$pair@QEAXPEBVEasy@curlpp@@@std@@PEAX@std@@@std@@@?$_Tree_node@U?$pair@QEAXPEBVEasy@curlpp@@@std@@PEAX@std@@SAXAEAV?$allocator@U?$_Tree_node@U?$pair@QEAXPEBVEasy@curlpp@@@std@@PEAX@std@@@1@PEAU01@@Z
	??$_Freenode@V?$allocator@U?$_List_node@U?$pair@PEBVEasy@curlpp@@UInfo@Multi@2@@std@@PEAX@std@@@std@@@?$_List_node@U?$pair@PEBVEasy@curlpp@@UInfo@Multi@2@@std@@PEAX@std@@SAXAEAV?$allocator@U?$_List_node@U?$pair@PEBVEasy@curlpp@@UInfo@Multi@2@@std@@PEAX@std@@@1@PEAU01@@Z
	??$_Freenode@V?$allocator@U?$_List_node@V?$basic_string@DU?$char_traits@D@std@@V?$allocator@D@2@@std@@PEAX@std@@@std@@@?$_List_node@V?$basic_string@DU?$char_traits@D@std@@V?$allocator@D@2@@std@@PEAX@std@@SAXAEAV?$allocator@U?$_List_node@V?$basic_string@DU?$char_traits@D@std@@V?$allocator@D@2@@std@@PEAX@std@@@1@PEAU01@@Z
	??$_Freenode@V?$allocator@U?$_List_node@V?$clone_ptr@VFormPart@curlpp@@@utilspp@@PEAX@std@@@std@@@?$_List_node@V?$clone_ptr@VFormPart@curlpp@@@utilspp@@PEAX@std@@SAXAEAV?$allocator@U?$_List_node@V?$clone_ptr@VFormPart@curlpp@@@utilspp@@PEAX@std@@@1@PEAU01@@Z
	??$_Freenode@V?$allocator@U?$_Tree_node@U?$pair@$$CBW4CURLoption@@PEAVOptionBase@curlpp@@@std@@PEAX@std@@@std@@@?$_Tree_node@U?$pair@$$CBW4CURLoption@@PEAVOptionBase@curlpp@@@std@@PEAX@std@@SAXAEAV?$allocator@U?$_Tree_node@U?$pair@$$CBW4CURLoption@@PEAVOptionBase@curlpp@@@std@@PEAX@std@@@1@PEAU01@@Z
	??$_Freenode@V?$allocator@U?$_Tree_node@U?$pair@QEAXPEBVEasy@curlpp@@@std@@PEAX@std@@@std@@@?$_Tree_node@U?$pair@QEAXPEBVEasy@curlpp@@@std@@PEAX@std@@SAXAEAV?$allocator@U?$_Tree_node@U?$pair@QEAXPEBVEasy@curlpp@@@std@@PEAX@std@@@1@PEAU01@@Z
	??$_Get_size_of_n@$00@std@@YA_K_K@Z
	??$_Get_size_of_n@$0BI@@std@@YA_K_K@Z
	??$_Get_size_of_n@$0CA@@std@@YA_K_K@Z
	??$_Get_size_of_n@$0DA@@std@@YA_K_K@Z
	??$_Get_unwrapped@AEAV?$_List_unchecked_const_iterator@V?$_List_val@U?$_List_simple_types@V?$basic_string@DU?$char_traits@D@std@@V?$allocator@D@2@@std@@@std@@@std@@U_Iterator_base0@2@@std@@@std@@YA?A_TAEAV?$_List_unchecked_const_iterator@V?$_List_val@U?$_List_simple_types@V?$basic_string@DU?$char_traits@D@std@@V?$allocator@D@2@@std@@@std@@@std@@U_Iterator_base0@2@@0@@Z
	??$_Get_unwrapped@AEAV?$_Tree_unchecked_const_iterator@V?$_Tree_val@U?$_Tree_simple_types@U?$pair@QEAXPEBVEasy@curlpp@@@std@@@std@@@std@@U_Iterator_base0@2@@std@@@std@@YA?A_TAEAV?$_Tree_unchecked_const_iterator@V?$_Tree_val@U?$_Tree_simple_types@U?$pair@QEAXPEBVEasy@curlpp@@@std@@@std@@@std@@U_Iterator_base0@2@@0@@Z
	??$_Insert_string@DU?$char_traits@D@std@@_K@std@@YAAEAV?$basic_ostream@DU?$char_traits@D@std@@@0@AEAV10@QEBD_K@Z
	??$_Kfn@$$CBW4CURLoption@@PEAVOptionBase@curlpp@@@?$_Tmap_traits@W4CURLoption@@PEAVOptionBase@curlpp@@U?$less@W4CURLoption@@@std@@V?$allocator@U?$pair@$$CBW4CURLoption@@PEAVOptionBase@curlpp@@@std@@@5@$0A@@std@@SAAEBW4CURLoption@@AEBU?$pair@$$CBW4CURLoption@@PEAVOptionBase@curlpp@@@1@@Z
	??$_Kfn@QEAXPEBVEasy@curlpp@@@?$_Tmap_traits@PEAXPEBVEasy@curlpp@@U?$less@PEAX@std@@V?$allocator@U?$pair@QEAXPEBVEasy@curlpp@@@std@@@4@$0A@@std@@SAAEBQEAXAEBU?$pair@QEAXPEBVEasy@curlpp@@@1@@Z
	??$_Lower_bound_duplicate@PEAX@?$_Tree@V?$_Tmap_traits@PEAXPEBVEasy@curlpp@@U?$less@PEAX@std@@V?$allocator@U?$pair@QEAXPEBVEasy@curlpp@@@std@@@4@$0A@@std@@@std@@IEBA_NQEAU?$_Tree_node@U?$pair@QEAXPEBVEasy@curlpp@@@std@@PEAX@1@AEBQEAX@Z
	??$_Lower_bound_duplicate@W4CURLoption@@@?$_Tree@V?$_Tmap_traits@W4CURLoption@@PEAVOptionBase@curlpp@@U?$less@W4CURLoption@@@std@@V?$allocator@U?$pair@$$CBW4CURLoption@@PEAVOptionBase@curlpp@@@std@@@5@$0A@@std@@@std@@IEBA_NQEAU?$_Tree_node@U?$pair@$$CBW4CURLoption@@PEAVOptionBase@curlpp@@@std@@PEAX@1@AEBW4CURLoption@@@Z
	??$_Max_limit@_J@std@@YA_JXZ
	??$_Pocca@V?$allocator@D@std@@@std@@YAXAEAV?$allocator@D@0@AEBV10@@Z
	??$_Pocca@V?$allocator@U?$_List_node@V?$basic_string@DU?$char_traits@D@std@@V?$allocator@D@2@@std@@PEAX@std@@@std@@@std@@YAXAEAV?$allocator@U?$_List_node@V?$basic_string@DU?$char_traits@D@std@@V?$allocator@D@2@@std@@PEAX@std@@@0@AEBV10@@Z
	??$_Pocma@V?$allocator@U?$_List_node@V?$basic_string@DU?$char_traits@D@std@@V?$allocator@D@2@@std@@PEAX@std@@@std@@@std@@YAXAEAV?$allocator@U?$_List_node@V?$basic_string@DU?$char_traits@D@std@@V?$allocator@D@2@@std@@PEAX@std@@@0@0@Z
	??$_Reallocate_for@V<lambda_66f57f934f28d61049862f64df852ff0>@@PEBD@?$basic_string@DU?$char_traits@D@std@@V?$allocator@D@2@@std@@AEAAAEAV01@_KV<lambda_66f57f934f28d61049862f64df852ff0>@@PEBD@Z
	??$_Try_emplace@AEBQEAX$$V@?$map@PEAXPEBVEasy@curlpp@@U?$less@PEAX@std@@V?$allocator@U?$pair@QEAXPEBVEasy@curlpp@@@std@@@4@@std@@AEAA?AU?$pair@PEAU?$_Tree_node@U?$pair@QEAXPEBVEasy@curlpp@@@std@@PEAX@std@@_N@1@AEBQEAX@Z
	??$_Tuple_get@$0A@AEBQEAX@std@@YA$$QEA_P$$QEAV?$tuple@AEBQEAX@0@@Z
	??$_Unfancy@D@std@@YAPEADPEAD@Z
	??$addressof@$$CBU?$pair@$$CBW4CURLoption@@PEAVOptionBase@curlpp@@@std@@@std@@YAPEBU?$pair@$$CBW4CURLoption@@PEAVOptionBase@curlpp@@@0@AEBU10@@Z
	??$addressof@$$CBV?$_List_val@U?$_List_simple_types@V?$basic_string@DU?$char_traits@D@std@@V?$allocator@D@2@@std@@@std@@@std@@@std@@YAPEBV?$_List_val@U?$_List_simple_types@V?$basic_string@DU?$char_traits@D@std@@V?$allocator@D@2@@std@@@std@@@0@AEBV10@@Z
	??$addressof@$$CBV?$_List_val@U?$_List_simple_types@V?$clone_ptr@VFormPart@curlpp@@@utilspp@@@std@@@std@@@std@@YAPEBV?$_List_val@U?$_List_simple_types@V?$clone_ptr@VFormPart@curlpp@@@utilspp@@@std@@@0@AEBV10@@Z
	??$addressof@$$CBV?$_Tree_val@U?$_Tree_simple_types@U?$pair@$$CBW4CURLoption@@PEAVOptionBase@curlpp@@@std@@@std@@@std@@@std@@YAPEBV?$_Tree_val@U?$_Tree_simple_types@U?$pair@$$CBW4CURLoption@@PEAVOptionBase@curlpp@@@std@@@std@@@0@AEBV10@@Z
	??$addressof@$$CBV?$_Tree_val@U?$_Tree_simple_types@U?$pair@QEAXPEBVEasy@curlpp@@@std@@@std@@@std@@@std@@YAPEBV?$_Tree_val@U?$_Tree_simple_types@U?$pair@QEAXPEBVEasy@curlpp@@@std@@@std@@@0@AEBV10@@Z
	??$addressof@$$CBV?$basic_string@DU?$char_traits@D@std@@V?$allocator@D@2@@std@@@std@@YAPEBV?$basic_string@DU?$char_traits@D@std@@V?$allocator@D@2@@0@AEBV10@@Z
	??$addressof@$$CBV?$list@V?$basic_string@DU?$char_traits@D@std@@V?$allocator@D@2@@std@@V?$allocator@V?$basic_string@DU?$char_traits@D@std@@V?$allocator@D@2@@std@@@2@@std@@@std@@YAPEBV?$list@V?$basic_string@DU?$char_traits@D@std@@V?$allocator@D@2@@std@@V?$allocator@V?$basic_string@DU?$char_traits@D@std@@V?$allocator@D@2@@std@@@2@@0@AEBV10@@Z
	??$addressof@PEAD@std@@YAPEAPEADAEAPEAD@Z
	??$addressof@PEAU?$_List_node@U?$pair@PEBVEasy@curlpp@@UInfo@Multi@2@@std@@PEAX@std@@@std@@YAPEAPEAU?$_List_node@U?$pair@PEBVEasy@curlpp@@UInfo@Multi@2@@std@@PEAX@0@AEAPEAU10@@Z
	??$addressof@PEAU?$_List_node@V?$basic_string@DU?$char_traits@D@std@@V?$allocator@D@2@@std@@PEAX@std@@@std@@YAPEAPEAU?$_List_node@V?$basic_string@DU?$char_traits@D@std@@V?$allocator@D@2@@std@@PEAX@0@AEAPEAU10@@Z
	??$addressof@PEAU?$_List_node@V?$clone_ptr@VFormPart@curlpp@@@utilspp@@PEAX@std@@@std@@YAPEAPEAU?$_List_node@V?$clone_ptr@VFormPart@curlpp@@@utilspp@@PEAX@0@AEAPEAU10@@Z
	??$addressof@PEAU?$_Tree_node@U?$pair@$$CBW4CURLoption@@PEAVOptionBase@curlpp@@@std@@PEAX@std@@@std@@YAPEAPEAU?$_Tree_node@U?$pair@$$CBW4CURLoption@@PEAVOptionBase@curlpp@@@std@@PEAX@0@AEAPEAU10@@Z
	??$addressof@PEAU?$_Tree_node@U?$pair@QEAXPEBVEasy@curlpp@@@std@@PEAX@std@@@std@@YAPEAPEAU?$_Tree_node@U?$pair@QEAXPEBVEasy@curlpp@@@std@@PEAX@0@AEAPEAU10@@Z
	??$addressof@U?$pair@$$CBW4CURLoption@@PEAVOptionBase@curlpp@@@std@@@std@@YAPEAU?$pair@$$CBW4CURLoption@@PEAVOptionBase@curlpp@@@0@AEAU10@@Z
	??$addressof@U?$pair@PEBVEasy@curlpp@@UInfo@Multi@2@@std@@@std@@YAPEAU?$pair@PEBVEasy@curlpp@@UInfo@Multi@2@@0@AEAU10@@Z
	??$addressof@U?$pair@QEAXPEBVEasy@curlpp@@@std@@@std@@YAPEAU?$pair@QEAXPEBVEasy@curlpp@@@0@AEAU10@@Z
	??$addressof@V?$_List_val@U?$_List_simple_types@V?$basic_string@DU?$char_traits@D@std@@V?$allocator@D@2@@std@@@std@@@std@@@std@@YAPEAV?$_List_val@U?$_List_simple_types@V?$basic_string@DU?$char_traits@D@std@@V?$allocator@D@2@@std@@@std@@@0@AEAV10@@Z
	??$addressof@V?$_List_val@U?$_List_simple_types@V?$clone_ptr@VFormPart@curlpp@@@utilspp@@@std@@@std@@@std@@YAPEAV?$_List_val@U?$_List_simple_types@V?$clone_ptr@VFormPart@curlpp@@@utilspp@@@std@@@0@AEAV10@@Z
	??$addressof@V?$_String_val@U?$_Simple_types@D@std@@@std@@@std@@YAPEAV?$_String_val@U?$_Simple_types@D@std@@@0@AEAV10@@Z
	??$addressof@V?$_Tree_val@U?$_Tree_simple_types@U?$pair@$$CBW4CURLoption@@PEAVOptionBase@curlpp@@@std@@@std@@@std@@@std@@YAPEAV?$_Tree_val@U?$_Tree_simple_types@U?$pair@$$CBW4CURLoption@@PEAVOptionBase@curlpp@@@std@@@std@@@0@AEAV10@@Z
	??$addressof@V?$_Tree_val@U?$_Tree_simple_types@U?$pair@QEAXPEBVEasy@curlpp@@@std@@@std@@@std@@@std@@YAPEAV?$_Tree_val@U?$_Tree_simple_types@U?$pair@QEAXPEBVEasy@curlpp@@@std@@@std@@@0@AEAV10@@Z
	??$addressof@V?$basic_string@DU?$char_traits@D@std@@V?$allocator@D@2@@std@@@std@@YAPEAV?$basic_string@DU?$char_traits@D@std@@V?$allocator@D@2@@0@AEAV10@@Z
	??$addressof@V?$clone_ptr@VFormPart@curlpp@@@utilspp@@@std@@YAPEAV?$clone_ptr@VFormPart@curlpp@@@utilspp@@AEAV12@@Z
	??$addressof@V?$list@V?$basic_string@DU?$char_traits@D@std@@V?$allocator@D@2@@std@@V?$allocator@V?$basic_string@DU?$char_traits@D@std@@V?$allocator@D@2@@std@@@2@@std@@@std@@YAPEAV?$list@V?$basic_string@DU?$char_traits@D@std@@V?$allocator@D@2@@std@@V?$allocator@V?$basic_string@DU?$char_traits@D@std@@V?$allocator@D@2@@std@@@2@@0@AEAV10@@Z
	??$assign@V?$_List_unchecked_const_iterator@V?$_List_val@U?$_List_simple_types@V?$basic_string@DU?$char_traits@D@std@@V?$allocator@D@2@@std@@@std@@@std@@U_Iterator_base0@2@@std@@$0A@@?$list@V?$basic_string@DU?$char_traits@D@std@@V?$allocator@D@2@@std@@V?$allocator@V?$basic_string@DU?$char_traits@D@std@@V?$allocator@D@2@@std@@@2@@std@@QEAAXV?$_List_unchecked_const_iterator@V?$_List_val@U?$_List_simple_types@V?$basic_string@DU?$char_traits@D@std@@V?$allocator@D@2@@std@@@std@@@std@@U_Iterator_base0@2@@1@0@Z
	??$construct@U?$pair@$$CBW4CURLoption@@PEAVOptionBase@curlpp@@@std@@U?$pair@W4CURLoption@@PEAVOptionBase@curlpp@@@2@@?$_Default_allocator_traits@V?$allocator@U?$_Tree_node@U?$pair@$$CBW4CURLoption@@PEAVOptionBase@curlpp@@@std@@PEAX@std@@@std@@@std@@SAXAEAV?$allocator@U?$_Tree_node@U?$pair@$$CBW4CURLoption@@PEAVOptionBase@curlpp@@@std@@PEAX@std@@@1@QEAU?$pair@$$CBW4CURLoption@@PEAVOptionBase@curlpp@@@1@$$QEAU?$pair@W4CURLoption@@PEAVOptionBase@curlpp@@@1@@Z
	??$construct@U?$pair@PEBVEasy@curlpp@@UInfo@Multi@2@@std@@U12@@?$_Default_allocator_traits@V?$allocator@U?$_List_node@U?$pair@PEBVEasy@curlpp@@UInfo@Multi@2@@std@@PEAX@std@@@std@@@std@@SAXAEAV?$allocator@U?$_List_node@U?$pair@PEBVEasy@curlpp@@UInfo@Multi@2@@std@@PEAX@std@@@1@QEAU?$pair@PEBVEasy@curlpp@@UInfo@Multi@2@@1@$$QEAU31@@Z
	??$construct@U?$pair@QEAXPEBVEasy@curlpp@@@std@@AEBUpiecewise_construct_t@2@V?$tuple@AEBQEAX@2@V?$tuple@$$V@2@@?$_Default_allocator_traits@V?$allocator@U?$_Tree_node@U?$pair@QEAXPEBVEasy@curlpp@@@std@@PEAX@std@@@std@@@std@@SAXAEAV?$allocator@U?$_Tree_node@U?$pair@QEAXPEBVEasy@curlpp@@@std@@PEAX@std@@@1@QEAU?$pair@QEAXPEBVEasy@curlpp@@@1@AEBUpiecewise_construct_t@1@$$QEAV?$tuple@AEBQEAX@1@$$QEAV?$tuple@$$V@1@@Z
	??$construct@U?$pair@QEAXPEBVEasy@curlpp@@@std@@U?$pair@PEAXPEBVEasy@curlpp@@@2@@?$_Default_allocator_traits@V?$allocator@U?$_Tree_node@U?$pair@QEAXPEBVEasy@curlpp@@@std@@PEAX@std@@@std@@@std@@SAXAEAV?$allocator@U?$_Tree_node@U?$pair@QEAXPEBVEasy@curlpp@@@std@@PEAX@std@@@1@QEAU?$pair@QEAXPEBVEasy@curlpp@@@1@$$QEAU?$pair@PEAXPEBVEasy@curlpp@@@1@@Z
	??$construct@V?$basic_string@DU?$char_traits@D@std@@V?$allocator@D@2@@std@@AEBV12@@?$_Default_allocator_traits@V?$allocator@U?$_List_node@V?$basic_string@DU?$char_traits@D@std@@V?$allocator@D@2@@std@@PEAX@std@@@std@@@std@@SAXAEAV?$allocator@U?$_List_node@V?$basic_string@DU?$char_traits@D@std@@V?$allocator@D@2@@std@@PEAX@std@@@1@QEAV?$basic_string@DU?$char_traits@D@std@@V?$allocator@D@2@@1@AEBV31@@Z
	??$construct@V?$basic_string@DU?$char_traits@D@std@@V?$allocator@D@2@@std@@V12@@?$_Default_allocator_traits@V?$allocator@U?$_List_node@V?$basic_string@DU?$char_traits@D@std@@V?$allocator@D@2@@std@@PEAX@std@@@std@@@std@@SAXAEAV?$allocator@U?$_List_node@V?$basic_string@DU?$char_traits@D@std@@V?$allocator@D@2@@std@@PEAX@std@@@1@QEAV?$basic_string@DU?$char_traits@D@std@@V?$allocator@D@2@@1@$$QEAV31@@Z
	??$construct@V?$clone_ptr@VFormPart@curlpp@@@utilspp@@AEBV12@@?$_Default_allocator_traits@V?$allocator@U?$_List_node@V?$clone_ptr@VFormPart@curlpp@@@utilspp@@PEAX@std@@@std@@@std@@SAXAEAV?$allocator@U?$_List_node@V?$clone_ptr@VFormPart@curlpp@@@utilspp@@PEAX@std@@@1@QEAV?$clone_ptr@VFormPart@curlpp@@@utilspp@@AEBV34@@Z
	??$destroy@U?$pair@$$CBW4CURLoption@@PEAVOptionBase@curlpp@@@std@@@?$_Default_allocator_traits@V?$allocator@U?$_Tree_node@U?$pair@$$CBW4CURLoption@@PEAVOptionBase@curlpp@@@std@@PEAX@std@@@std@@@std@@SAXAEAV?$allocator@U?$_Tree_node@U?$pair@$$CBW4CURLoption@@PEAVOptionBase@curlpp@@@std@@PEAX@std@@@1@QEAU?$pair@$$CBW4CURLoption@@PEAVOptionBase@curlpp@@@1@@Z
	??$destroy@U?$pair@PEBVEasy@curlpp@@UInfo@Multi@2@@std@@@?$_Default_allocator_traits@V?$allocator@U?$_List_node@U?$pair@PEBVEasy@curlpp@@UInfo@Multi@2@@std@@PEAX@std@@@std@@@std@@SAXAEAV?$allocator@U?$_List_node@U?$pair@PEBVEasy@curlpp@@UInfo@Multi@2@@std@@PEAX@std@@@1@QEAU?$pair@PEBVEasy@curlpp@@UInfo@Multi@2@@1@@Z
	??$destroy@U?$pair@QEAXPEBVEasy@curlpp@@@std@@@?$_Default_allocator_traits@V?$allocator@U?$_Tree_node@U?$pair@QEAXPEBVEasy@curlpp@@@std@@PEAX@std@@@std@@@std@@SAXAEAV?$allocator@U?$_Tree_node@U?$pair@QEAXPEBVEasy@curlpp@@@std@@PEAX@std@@@1@QEAU?$pair@QEAXPEBVEasy@curlpp@@@1@@Z
	??$destroy@V?$basic_string@DU?$char_traits@D@std@@V?$allocator@D@2@@std@@@?$_Default_allocator_traits@V?$allocator@U?$_List_node@V?$basic_string@DU?$char_traits@D@std@@V?$allocator@D@2@@std@@PEAX@std@@@std@@@std@@SAXAEAV?$allocator@U?$_List_node@V?$basic_string@DU?$char_traits@D@std@@V?$allocator@D@2@@std@@PEAX@std@@@1@QEAV?$basic_string@DU?$char_traits@D@std@@V?$allocator@D@2@@1@@Z
	??$destroy@V?$clone_ptr@VFormPart@curlpp@@@utilspp@@@?$_Default_allocator_traits@V?$allocator@U?$_List_node@V?$clone_ptr@VFormPart@curlpp@@@utilspp@@PEAX@std@@@std@@@std@@SAXAEAV?$allocator@U?$_List_node@V?$clone_ptr@VFormPart@curlpp@@@utilspp@@PEAX@std@@@1@QEAV?$clone_ptr@VFormPart@curlpp@@@utilspp@@@Z
	??$distance@V?$_Tree_unchecked_const_iterator@V?$_Tree_val@U?$_Tree_simple_types@U?$pair@QEAXPEBVEasy@curlpp@@@std@@@std@@@std@@U_Iterator_base0@2@@std@@@std@@YA_JV?$_Tree_unchecked_const_iterator@V?$_Tree_val@U?$_Tree_simple_types@U?$pair@QEAXPEBVEasy@curlpp@@@std@@@std@@@std@@U_Iterator_base0@2@@0@0@Z
	??$emplace@U?$pair@PEAXPEBVEasy@curlpp@@@std@@@?$_Tree@V?$_Tmap_traits@PEAXPEBVEasy@curlpp@@U?$less@PEAX@std@@V?$allocator@U?$pair@QEAXPEBVEasy@curlpp@@@std@@@4@$0A@@std@@@std@@QEAA?AU?$pair@V?$_Tree_iterator@V?$_Tree_val@U?$_Tree_simple_types@U?$pair@QEAXPEBVEasy@curlpp@@@std@@@std@@@std@@@std@@_N@1@$$QEAU?$pair@PEAXPEBVEasy@curlpp@@@1@@Z
	??$emplace@U?$pair@W4CURLoption@@PEAVOptionBase@curlpp@@@std@@@?$_Tree@V?$_Tmap_traits@W4CURLoption@@PEAVOptionBase@curlpp@@U?$less@W4CURLoption@@@std@@V?$allocator@U?$pair@$$CBW4CURLoption@@PEAVOptionBase@curlpp@@@std@@@5@$0A@@std@@@std@@QEAA?AU?$pair@V?$_Tree_iterator@V?$_Tree_val@U?$_Tree_simple_types@U?$pair@$$CBW4CURLoption@@PEAVOptionBase@curlpp@@@std@@@std@@@std@@@std@@_N@1@$$QEAU?$pair@W4CURLoption@@PEAVOptionBase@curlpp@@@1@@Z
	??$erase@V?$_Tree_iterator@V?$_Tree_val@U?$_Tree_simple_types@U?$pair@$$CBW4CURLoption@@PEAVOptionBase@curlpp@@@std@@@std@@@std@@@std@@$0A@@?$_Tree@V?$_Tmap_traits@W4CURLoption@@PEAVOptionBase@curlpp@@U?$less@W4CURLoption@@@std@@V?$allocator@U?$pair@$$CBW4CURLoption@@PEAVOptionBase@curlpp@@@std@@@5@$0A@@std@@@std@@QEAA?AV?$_Tree_iterator@V?$_Tree_val@U?$_Tree_simple_types@U?$pair@$$CBW4CURLoption@@PEAVOptionBase@curlpp@@@std@@@std@@@std@@@1@V21@@Z
	??$erase@V?$_Tree_iterator@V?$_Tree_val@U?$_Tree_simple_types@U?$pair@QEAXPEBVEasy@curlpp@@@std@@@std@@@std@@@std@@$0A@@?$_Tree@V?$_Tmap_traits@PEAXPEBVEasy@curlpp@@U?$less@PEAX@std@@V?$allocator@U?$pair@QEAXPEBVEasy@curlpp@@@std@@@4@$0A@@std@@@std@@QEAA?AV?$_Tree_iterator@V?$_Tree_val@U?$_Tree_simple_types@U?$pair@QEAXPEBVEasy@curlpp@@@std@@@std@@@std@@@1@V21@@Z
	??$exchange@PEAU?$_List_node@V?$basic_string@DU?$char_traits@D@std@@V?$allocator@D@2@@std@@PEAX@std@@$$T@std@@YAPEAU?$_List_node@V?$basic_string@DU?$char_traits@D@std@@V?$allocator@D@2@@std@@PEAX@0@AEAPEAU10@$$QEA$$T@Z
	??$exchange@PEAU?$_List_node@V?$basic_string@DU?$char_traits@D@std@@V?$allocator@D@2@@std@@PEAX@std@@AEAPEAU12@@std@@YAPEAU?$_List_node@V?$basic_string@DU?$char_traits@D@std@@V?$allocator@D@2@@std@@PEAX@0@AEAPEAU10@0@Z
	??$exchange@PEAU?$_List_node@V?$basic_string@DU?$char_traits@D@std@@V?$allocator@D@2@@std@@PEAX@std@@PEAU12@@std@@YAPEAU?$_List_node@V?$basic_string@DU?$char_traits@D@std@@V?$allocator@D@2@@std@@PEAX@0@AEAPEAU10@$$QEAPEAU10@@Z
	??$exchange@PEAU?$_Tree_node@U?$pair@$$CBW4CURLoption@@PEAVOptionBase@curlpp@@@std@@PEAX@std@@$$T@std@@YAPEAU?$_Tree_node@U?$pair@$$CBW4CURLoption@@PEAVOptionBase@curlpp@@@std@@PEAX@0@AEAPEAU10@$$QEA$$T@Z
	??$exchange@PEAU?$_Tree_node@U?$pair@$$CBW4CURLoption@@PEAVOptionBase@curlpp@@@std@@PEAX@std@@AEAPEAU12@@std@@YAPEAU?$_Tree_node@U?$pair@$$CBW4CURLoption@@PEAVOptionBase@curlpp@@@std@@PEAX@0@AEAPEAU10@0@Z
	??$exchange@PEAU?$_Tree_node@U?$pair@QEAXPEBVEasy@curlpp@@@std@@PEAX@std@@$$T@std@@YAPEAU?$_Tree_node@U?$pair@QEAXPEBVEasy@curlpp@@@std@@PEAX@0@AEAPEAU10@$$QEA$$T@Z
	??$exchange@PEAU?$_Tree_node@U?$pair@QEAXPEBVEasy@curlpp@@@std@@PEAX@std@@AEAPEAU12@@std@@YAPEAU?$_Tree_node@U?$pair@QEAXPEBVEasy@curlpp@@@std@@PEAX@0@AEAPEAU10@0@Z
	??$exchange@PEAVCurlHandle@internal@curlpp@@$$T@std@@YAPEAVCurlHandle@internal@curlpp@@AEAPEAV123@$$QEA$$T@Z
	??$exchange@PEAVOptionBase@curlpp@@$$T@std@@YAPEAVOptionBase@curlpp@@AEAPEAV12@$$QEA$$T@Z
	??$exchange@_K_K@std@@YA_KAEA_K$$QEA_K@Z
	??$forward@AEAPEAD@std@@YAAEAPEADAEAPEAD@Z
	??$forward@AEAPEAU?$_List_node@U?$pair@PEBVEasy@curlpp@@UInfo@Multi@2@@std@@PEAX@std@@@std@@YAAEAPEAU?$_List_node@U?$pair@PEBVEasy@curlpp@@UInfo@Multi@2@@std@@PEAX@0@AEAPEAU10@@Z
	??$forward@AEAPEAU?$_List_node@V?$basic_string@DU?$char_traits@D@std@@V?$allocator@D@2@@std@@PEAX@std@@@std@@YAAEAPEAU?$_List_node@V?$basic_string@DU?$char_traits@D@std@@V?$allocator@D@2@@std@@PEAX@0@AEAPEAU10@@Z
	??$forward@AEAPEAU?$_List_node@V?$clone_ptr@VFormPart@curlpp@@@utilspp@@PEAX@std@@@std@@YAAEAPEAU?$_List_node@V?$clone_ptr@VFormPart@curlpp@@@utilspp@@PEAX@0@AEAPEAU10@@Z
	??$forward@AEAPEAU?$_Tree_node@U?$pair@$$CBW4CURLoption@@PEAVOptionBase@curlpp@@@std@@PEAX@std@@@std@@YAAEAPEAU?$_Tree_node@U?$pair@$$CBW4CURLoption@@PEAVOptionBase@curlpp@@@std@@PEAX@0@AEAPEAU10@@Z
	??$forward@AEAPEAU?$_Tree_node@U?$pair@QEAXPEBVEasy@curlpp@@@std@@PEAX@std@@@std@@YAAEAPEAU?$_Tree_node@U?$pair@QEAXPEBVEasy@curlpp@@@std@@PEAX@0@AEAPEAU10@@Z
	??$forward@AEAPEAVCallbackExceptionBase@curlpp@@@std@@YAAEAPEAVCallbackExceptionBase@curlpp@@AEAPEAV12@@Z
	??$forward@AEAPEAVCurlHandle@internal@curlpp@@@std@@YAAEAPEAVCurlHandle@internal@curlpp@@AEAPEAV123@@Z
	??$forward@AEAPEAVOptionBase@curlpp@@@std@@YAAEAPEAVOptionBase@curlpp@@AEAPEAV12@@Z
	??$forward@AEAPEBVEasy@curlpp@@@std@@YAAEAPEBVEasy@curlpp@@AEAPEBV12@@Z
	??$forward@AEAUInfo@Multi@curlpp@@@std@@YAAEAUInfo@Multi@curlpp@@AEAU123@@Z
	??$forward@AEBQEAD@std@@YAAEBQEADAEBQEAD@Z
	??$forward@AEBQEAU?$_List_node@U?$pair@PEBVEasy@curlpp@@UInfo@Multi@2@@std@@PEAX@std@@@std@@YAAEBQEAU?$_List_node@U?$pair@PEBVEasy@curlpp@@UInfo@Multi@2@@std@@PEAX@0@AEBQEAU10@@Z
	??$forward@AEBQEAU?$_List_node@V?$basic_string@DU?$char_traits@D@std@@V?$allocator@D@2@@std@@PEAX@std@@@std@@YAAEBQEAU?$_List_node@V?$basic_string@DU?$char_traits@D@std@@V?$allocator@D@2@@std@@PEAX@0@AEBQEAU10@@Z
	??$forward@AEBQEAU?$_List_node@V?$clone_ptr@VFormPart@curlpp@@@utilspp@@PEAX@std@@@std@@YAAEBQEAU?$_List_node@V?$clone_ptr@VFormPart@curlpp@@@utilspp@@PEAX@0@AEBQEAU10@@Z
	??$forward@AEBQEAU?$_Tree_node@U?$pair@$$CBW4CURLoption@@PEAVOptionBase@curlpp@@@std@@PEAX@std@@@std@@YAAEBQEAU?$_Tree_node@U?$pair@$$CBW4CURLoption@@PEAVOptionBase@curlpp@@@std@@PEAX@0@AEBQEAU10@@Z
	??$forward@AEBQEAU?$_Tree_node@U?$pair@QEAXPEBVEasy@curlpp@@@std@@PEAX@std@@@std@@YAAEBQEAU?$_Tree_node@U?$pair@QEAXPEBVEasy@curlpp@@@std@@PEAX@0@AEBQEAU10@@Z
	??$forward@AEBQEAX@std@@YAAEBQEAXAEBQEAX@Z
	??$forward@AEBU?$less@PEAX@std@@@std@@YAAEBU?$less@PEAX@0@AEBU10@@Z
	??$forward@AEBU?$less@W4CURLoption@@@std@@@std@@YAAEBU?$less@W4CURLoption@@@0@AEBU10@@Z
	??$forward@AEBUpiecewise_construct_t@std@@@std@@YAAEBUpiecewise_construct_t@0@AEBU10@@Z
	??$forward@AEBV?$basic_string@DU?$char_traits@D@std@@V?$allocator@D@2@@std@@@std@@YAAEBV?$basic_string@DU?$char_traits@D@std@@V?$allocator@D@2@@0@AEBV10@@Z
	??$forward@AEBV?$clone_ptr@VFormPart@curlpp@@@utilspp@@@std@@YAAEBV?$clone_ptr@VFormPart@curlpp@@@utilspp@@AEBV12@@Z
	??$forward@AEB_N@std@@YAAEB_NAEB_N@Z
	??$forward@N@std@@YA$$QEANAEAN@Z
	??$forward@PEAD@std@@YA$$QEAPEADAEAPEAD@Z
	??$forward@PEAU?$_List_node@V?$basic_string@DU?$char_traits@D@std@@V?$allocator@D@2@@std@@PEAX@std@@@std@@YA$$QEAPEAU?$_List_node@V?$basic_string@DU?$char_traits@D@std@@V?$allocator@D@2@@std@@PEAX@0@AEAPEAU10@@Z
	??$forward@PEAU?$_Tree_node@U?$pair@$$CBW4CURLoption@@PEAVOptionBase@curlpp@@@std@@PEAX@std@@@std@@YA$$QEAPEAU?$_Tree_node@U?$pair@$$CBW4CURLoption@@PEAVOptionBase@curlpp@@@std@@PEAX@0@AEAPEAU10@@Z
	??$forward@PEAU?$_Tree_node@U?$pair@QEAXPEBVEasy@curlpp@@@std@@PEAX@std@@@std@@YA$$QEAPEAU?$_Tree_node@U?$pair@QEAXPEBVEasy@curlpp@@@std@@PEAX@0@AEAPEAU10@@Z
	??$forward@PEAVCurlHandle@internal@curlpp@@@std@@YA$$QEAPEAVCurlHandle@internal@curlpp@@AEAPEAV123@@Z
	??$forward@PEAVOptionBase@curlpp@@@std@@YA$$QEAPEAVOptionBase@curlpp@@AEAPEAV12@@Z
	??$forward@PEAX@std@@YA$$QEAPEAXAEAPEAX@Z
	??$forward@PEBVEasy@curlpp@@@std@@YA$$QEAPEBVEasy@curlpp@@AEAPEBV12@@Z
	??$forward@U?$default_delete@VCurlHandle@internal@curlpp@@@std@@@std@@YA$$QEAU?$default_delete@VCurlHandle@internal@curlpp@@@0@AEAU10@@Z
	??$forward@U?$pair@PEAXPEBVEasy@curlpp@@@std@@@std@@YA$$QEAU?$pair@PEAXPEBVEasy@curlpp@@@0@AEAU10@@Z
	??$forward@U?$pair@PEBVEasy@curlpp@@UInfo@Multi@2@@std@@@std@@YA$$QEAU?$pair@PEBVEasy@curlpp@@UInfo@Multi@2@@0@AEAU10@@Z
	??$forward@U?$pair@W4CURLoption@@PEAVOptionBase@curlpp@@@std@@@std@@YA$$QEAU?$pair@W4CURLoption@@PEAVOptionBase@curlpp@@@0@AEAU10@@Z
	??$forward@U_Zero_then_variadic_args_t@std@@@std@@YA$$QEAU_Zero_then_variadic_args_t@0@AEAU10@@Z
	??$forward@V?$_Tree_iterator@V?$_Tree_val@U?$_Tree_simple_types@U?$pair@$$CBW4CURLoption@@PEAVOptionBase@curlpp@@@std@@@std@@@std@@@std@@@std@@YA$$QEAV?$_Tree_iterator@V?$_Tree_val@U?$_Tree_simple_types@U?$pair@$$CBW4CURLoption@@PEAVOptionBase@curlpp@@@std@@@std@@@std@@@0@AEAV10@@Z
	??$forward@V?$_Tree_iterator@V?$_Tree_val@U?$_Tree_simple_types@U?$pair@QEAXPEBVEasy@curlpp@@@std@@@std@@@std@@@std@@@std@@YA$$QEAV?$_Tree_iterator@V?$_Tree_val@U?$_Tree_simple_types@U?$pair@QEAXPEBVEasy@curlpp@@@std@@@std@@@std@@@0@AEAV10@@Z
	??$forward@V?$allocator@D@std@@@std@@YA$$QEAV?$allocator@D@0@AEAV10@@Z
	??$forward@V?$allocator@U?$_List_node@U?$pair@PEBVEasy@curlpp@@UInfo@Multi@2@@std@@PEAX@std@@@std@@@std@@YA$$QEAV?$allocator@U?$_List_node@U?$pair@PEBVEasy@curlpp@@UInfo@Multi@2@@std@@PEAX@std@@@0@AEAV10@@Z
	??$forward@V?$allocator@U?$_List_node@V?$basic_string@DU?$char_traits@D@std@@V?$allocator@D@2@@std@@PEAX@std@@@std@@@std@@YA$$QEAV?$allocator@U?$_List_node@V?$basic_string@DU?$char_traits@D@std@@V?$allocator@D@2@@std@@PEAX@std@@@0@AEAV10@@Z
	??$forward@V?$allocator@U?$_List_node@V?$clone_ptr@VFormPart@curlpp@@@utilspp@@PEAX@std@@@std@@@std@@YA$$QEAV?$allocator@U?$_List_node@V?$clone_ptr@VFormPart@curlpp@@@utilspp@@PEAX@std@@@0@AEAV10@@Z
	??$forward@V?$basic_string@DU?$char_traits@D@std@@V?$allocator@D@2@@std@@@std@@YA$$QEAV?$basic_string@DU?$char_traits@D@std@@V?$allocator@D@2@@0@AEAV10@@Z
	??$forward@V?$tuple@$$V@std@@@std@@YA$$QEAV?$tuple@$$V@0@AEAV10@@Z
	??$forward@V?$tuple@AEBQEAX@std@@@std@@YA$$QEAV?$tuple@AEBQEAX@0@AEAV10@@Z
	??$forward@W4CURLoption@@@std@@YA$$QEAW4CURLoption@@AEAW41@@Z
	??$forward@W4curl_infotype@@@std@@YA$$QEAW4curl_infotype@@AEAW41@@Z
	??$forward@_K@std@@YA$$QEA_KAEA_K@Z
	??$forward@_N@std@@YA$$QEA_NAEA_N@Z
	??$forward_as_tuple@$$V@std@@YA?AV?$tuple@$$V@0@XZ
	??$forward_as_tuple@AEBQEAX@std@@YA?AV?$tuple@AEBQEAX@0@AEBQEAX@Z
	??$get@J@InfoGetter@curlpp@@SAXAEBVEasy@1@W4CURLINFO@@AEAJ@Z
	??$get@PEAD@InfoGetter@curlpp@@SAXAEBVEasy@1@W4CURLINFO@@AEAPEAD@Z
	??$get@PEAUcurl_slist@@@InfoGetter@curlpp@@SAXAEBVEasy@1@W4CURLINFO@@AEAPEAUcurl_slist@@@Z
	??$get@_J@InfoGetter@curlpp@@SAXAEBVEasy@1@W4CURLINFO@@AEA_J@Z
	??$getInfo@J@CurlHandle@internal@curlpp@@QEBAXW4CURLINFO@@AEAJ@Z
	??$getInfo@J@Easy@curlpp@@AEBAXW4CURLINFO@@AEAJ@Z
	??$getInfo@PEAD@CurlHandle@internal@curlpp@@QEBAXW4CURLINFO@@AEAPEAD@Z
	??$getInfo@PEAD@Easy@curlpp@@AEBAXW4CURLINFO@@AEAPEAD@Z
	??$getInfo@PEAUcurl_slist@@@CurlHandle@internal@curlpp@@QEBAXW4CURLINFO@@AEAPEAUcurl_slist@@@Z
	??$getInfo@PEAUcurl_slist@@@Easy@curlpp@@AEBAXW4CURLINFO@@AEAPEAUcurl_slist@@@Z
	??$getInfo@_J@CurlHandle@internal@curlpp@@QEBAXW4CURLINFO@@AEA_J@Z
	??$getInfo@_J@Easy@curlpp@@AEBAXW4CURLINFO@@AEA_J@Z
	??$insert@U?$pair@PEAXPEBVEasy@curlpp@@@std@@$0A@@?$map@PEAXPEBVEasy@curlpp@@U?$less@PEAX@std@@V?$allocator@U?$pair@QEAXPEBVEasy@curlpp@@@std@@@4@@std@@QEAA?AU?$pair@V?$_Tree_iterator@V?$_Tree_val@U?$_Tree_simple_types@U?$pair@QEAXPEBVEasy@curlpp@@@std@@@std@@@std@@@std@@_N@1@$$QEAU?$pair@PEAXPEBVEasy@curlpp@@@1@@Z
	??$insert@U?$pair@W4CURLoption@@PEAVOptionBase@curlpp@@@std@@$0A@@?$map@W4CURLoption@@PEAVOptionBase@curlpp@@U?$less@W4CURLoption@@@std@@V?$allocator@U?$pair@$$CBW4CURLoption@@PEAVOptionBase@curlpp@@@std@@@5@@std@@QEAA?AU?$pair@V?$_Tree_iterator@V?$_Tree_val@U?$_Tree_simple_types@U?$pair@$$CBW4CURLoption@@PEAVOptionBase@curlpp@@@std@@@std@@@std@@@std@@_N@1@$$QEAU?$pair@W4CURLoption@@PEAVOptionBase@curlpp@@@1@@Z
	??$make_pair@AEAPEBVEasy@curlpp@@AEAUInfo@Multi@2@@std@@YA?AU?$pair@PEBVEasy@curlpp@@UInfo@Multi@2@@0@AEAPEBVEasy@curlpp@@AEAUInfo@Multi@3@@Z
	??$make_pair@PEAXAEAPEBVEasy@curlpp@@@std@@YA?AU?$pair@PEAXPEBVEasy@curlpp@@@0@$$QEAPEAXAEAPEBVEasy@curlpp@@@Z
	??$make_pair@W4CURLoption@@AEAPEAVOptionBase@curlpp@@@std@@YA?AU?$pair@W4CURLoption@@PEAVOptionBase@curlpp@@@0@$$QEAW4CURLoption@@AEAPEAVOptionBase@curlpp@@@Z
	??$make_pair@W4CURLoption@@PEAVOptionBase@curlpp@@@std@@YA?AU?$pair@W4CURLoption@@PEAVOptionBase@curlpp@@@0@$$QEAW4CURLoption@@$$QEAPEAVOptionBase@curlpp@@@Z
	??$max@_K@std@@YAAEB_KAEB_K0@Z
	??$min@_K@std@@YAAEB_KAEB_K0@Z
	??$move@AEAD@std@@YA$$QEADAEAD@Z
	??$move@AEAPEAU?$_List_node@U?$pair@PEBVEasy@curlpp@@UInfo@Multi@2@@std@@PEAX@std@@@std@@YA$$QEAPEAU?$_List_node@U?$pair@PEBVEasy@curlpp@@UInfo@Multi@2@@std@@PEAX@0@AEAPEAU10@@Z
	??$move@AEAPEAU?$_List_node@V?$basic_string@DU?$char_traits@D@std@@V?$allocator@D@2@@std@@PEAX@std@@@std@@YA$$QEAPEAU?$_List_node@V?$basic_string@DU?$char_traits@D@std@@V?$allocator@D@2@@std@@PEAX@0@AEAPEAU10@@Z
	??$move@AEAPEAU?$_List_node@V?$clone_ptr@VFormPart@curlpp@@@utilspp@@PEAX@std@@@std@@YA$$QEAPEAU?$_List_node@V?$clone_ptr@VFormPart@curlpp@@@utilspp@@PEAX@0@AEAPEAU10@@Z
	??$move@AEAU?$pair@PEBVEasy@curlpp@@UInfo@Multi@2@@std@@@std@@YA$$QEAU?$pair@PEBVEasy@curlpp@@UInfo@Multi@2@@0@AEAU10@@Z
	??$move@AEAV?$_Func_class@HNNNN@std@@@std@@YA$$QEAV?$_Func_class@HNNNN@0@AEAV10@@Z
	??$move@AEAV?$_Func_class@HW4curl_infotype@@PEAD_K@std@@@std@@YA$$QEAV?$_Func_class@HW4curl_infotype@@PEAD_K@0@AEAV10@@Z
	??$move@AEAV?$_Func_class@W4CURLcode@@PEAX@std@@@std@@YA$$QEAV?$_Func_class@W4CURLcode@@PEAX@0@AEAV10@@Z
	??$move@AEAV?$_Func_class@_KPEAD_K_K@std@@@std@@YA$$QEAV?$_Func_class@_KPEAD_K_K@0@AEAV10@@Z
	??$move@AEAV?$_List_unchecked_const_iterator@V?$_List_val@U?$_List_simple_types@V?$basic_string@DU?$char_traits@D@std@@V?$allocator@D@2@@std@@@std@@@std@@U_Iterator_base0@2@@std@@@std@@YA$$QEAV?$_List_unchecked_const_iterator@V?$_List_val@U?$_List_simple_types@V?$basic_string@DU?$char_traits@D@std@@V?$allocator@D@2@@std@@@std@@@std@@U_Iterator_base0@2@@0@AEAV10@@Z
	??$move@AEAV?$allocator@D@std@@@std@@YA$$QEAV?$allocator@D@0@AEAV10@@Z
	??$move@AEAV?$allocator@U?$_List_node@U?$pair@PEBVEasy@curlpp@@UInfo@Multi@2@@std@@PEAX@std@@@std@@@std@@YA$$QEAV?$allocator@U?$_List_node@U?$pair@PEBVEasy@curlpp@@UInfo@Multi@2@@std@@PEAX@std@@@0@AEAV10@@Z
	??$move@AEAV?$allocator@U?$_List_node@V?$basic_string@DU?$char_traits@D@std@@V?$allocator@D@2@@std@@PEAX@std@@@std@@@std@@YA$$QEAV?$allocator@U?$_List_node@V?$basic_string@DU?$char_traits@D@std@@V?$allocator@D@2@@std@@PEAX@std@@@0@AEAV10@@Z
	??$move@AEAV?$allocator@U?$_List_node@V?$clone_ptr@VFormPart@curlpp@@@utilspp@@PEAX@std@@@std@@@std@@YA$$QEAV?$allocator@U?$_List_node@V?$clone_ptr@VFormPart@curlpp@@@utilspp@@PEAX@std@@@0@AEAV10@@Z
	??$move@AEAV?$basic_string@DU?$char_traits@D@std@@V?$allocator@D@2@@std@@@std@@YA$$QEAV?$basic_string@DU?$char_traits@D@std@@V?$allocator@D@2@@0@AEAV10@@Z
	??$move@AEAV?$tuple@AEBQEAX@std@@@std@@YA$$QEAV?$tuple@AEBQEAX@0@AEAV10@@Z
	??$move@AEAV?$unique_ptr@VCurlHandle@internal@curlpp@@U?$default_delete@VCurlHandle@internal@curlpp@@@std@@@std@@@std@@YA$$QEAV?$unique_ptr@VCurlHandle@internal@curlpp@@U?$default_delete@VCurlHandle@internal@curlpp@@@std@@@0@AEAV10@@Z
	??$move@AEA_K@std@@YA$$QEA_KAEA_K@Z
	??$option@P6A?AW4CURLcode@@PEAX0PEAVCurlHandle@internal@curlpp@@@Z@CurlHandle@internal@curlpp@@QEAAXW4CURLoption@@P6A?AW4CURLcode@@PEAX1PEAV012@@Z@Z
	??$option@P6AHPEAVCurlHandle@internal@curlpp@@NNNN@Z@CurlHandle@internal@curlpp@@QEAAXW4CURLoption@@P6AHPEAV012@NNNN@Z@Z
	??$option@P6AHPEAXW4curl_infotype@@PEAD_KPEAVCurlHandle@internal@curlpp@@@Z@CurlHandle@internal@curlpp@@QEAAXW4CURLoption@@P6AHPEAXW4curl_infotype@@PEAD_KPEAV012@@Z@Z
	??$option@P6A_KPEAD_K1PEAVCurlHandle@internal@curlpp@@@Z@CurlHandle@internal@curlpp@@QEAAXW4CURLoption@@P6A_KPEAD_K2PEAV012@@Z@Z
	??$option@PEAU_iobuf@@@CurlHandle@internal@curlpp@@QEAAXW4CURLoption@@PEAU_iobuf@@@Z
	??$option@PEAUcurl_httppost@@@CurlHandle@internal@curlpp@@QEAAXW4CURLoption@@PEAUcurl_httppost@@@Z
	??$option@PEAV?$basic_istream@DU?$char_traits@D@std@@@std@@@CurlHandle@internal@curlpp@@QEAAXW4CURLoption@@PEAV?$basic_istream@DU?$char_traits@D@std@@@std@@@Z
	??$option@PEAV?$basic_ostream@DU?$char_traits@D@std@@@std@@@CurlHandle@internal@curlpp@@QEAAXW4CURLoption@@PEAV?$basic_ostream@DU?$char_traits@D@std@@@std@@@Z
	??$option@PEAVCurlHandle@internal@curlpp@@@CurlHandle@internal@curlpp@@QEAAXW4CURLoption@@PEAV012@@Z
	??$option@PEAX@CurlHandle@internal@curlpp@@QEAAXW4CURLoption@@PEAX@Z
	??$swap@D$0A@@std@@YAXAEAD0@Z
	??$swap@PEAU?$_List_node@U?$pair@PEBVEasy@curlpp@@UInfo@Multi@2@@std@@PEAX@std@@$0A@@std@@YAXAEAPEAU?$_List_node@U?$pair@PEBVEasy@curlpp@@UInfo@Multi@2@@std@@PEAX@0@0@Z
	??$swap@PEAU?$_List_node@V?$basic_string@DU?$char_traits@D@std@@V?$allocator@D@2@@std@@PEAX@std@@$0A@@std@@YAXAEAPEAU?$_List_node@V?$basic_string@DU?$char_traits@D@std@@V?$allocator@D@2@@std@@PEAX@0@0@Z
	??$swap@PEAU?$_List_node@V?$clone_ptr@VFormPart@curlpp@@@utilspp@@PEAX@std@@$0A@@std@@YAXAEAPEAU?$_List_node@V?$clone_ptr@VFormPart@curlpp@@@utilspp@@PEAX@0@0@Z
	??$swap@_K$0A@@std@@YAXAEA_K0@Z
	??0?$CallbackException@VLogicError@curlpp@@@curlpp@@QEAA@AEBV01@@Z
	??0?$CallbackException@VLogicError@curlpp@@@curlpp@@QEAA@AEBVLogicError@1@@Z
	??0?$CallbackException@VUnknowException@curlpp@@@curlpp@@QEAA@AEBV01@@Z
	??0?$CallbackException@VUnknowException@curlpp@@@curlpp@@QEAA@AEBVUnknowException@1@@Z
	??0?$Option@PEAV?$basic_ostream@DU?$char_traits@D@std@@@std@@@curlpp@@IEAA@W4CURLoption@@PEAV?$basic_ostream@DU?$char_traits@D@std@@@std@@@Z
	??0?$OptionContainer@PEAV?$basic_ostream@DU?$char_traits@D@std@@@std@@@internal@curlpp@@QEAA@PEAV?$basic_ostream@DU?$char_traits@D@std@@@std@@@Z
	??0?$OptionTrait@PEAV?$basic_ostream@DU?$char_traits@D@std@@@std@@$0CHBB@@curlpp@@QEAA@PEAV?$basic_ostream@DU?$char_traits@D@std@@@std@@@Z
	??0?$_Alloc_construct_ptr@V?$allocator@U?$_List_node@U?$pair@PEBVEasy@curlpp@@UInfo@Multi@2@@std@@PEAX@std@@@std@@@std@@QEAA@AEAV?$allocator@U?$_List_node@U?$pair@PEBVEasy@curlpp@@UInfo@Multi@2@@std@@PEAX@std@@@1@@Z
	??0?$_Alloc_construct_ptr@V?$allocator@U?$_List_node@V?$basic_string@DU?$char_traits@D@std@@V?$allocator@D@2@@std@@PEAX@std@@@std@@@std@@QEAA@AEAV?$allocator@U?$_List_node@V?$basic_string@DU?$char_traits@D@std@@V?$allocator@D@2@@std@@PEAX@std@@@1@@Z
	??0?$_Alloc_construct_ptr@V?$allocator@U?$_List_node@V?$clone_ptr@VFormPart@curlpp@@@utilspp@@PEAX@std@@@std@@@std@@QEAA@AEAV?$allocator@U?$_List_node@V?$clone_ptr@VFormPart@curlpp@@@utilspp@@PEAX@std@@@1@@Z
	??0?$_Alloc_construct_ptr@V?$allocator@U?$_Tree_node@U?$pair@$$CBW4CURLoption@@PEAVOptionBase@curlpp@@@std@@PEAX@std@@@std@@@std@@QEAA@AEAV?$allocator@U?$_Tree_node@U?$pair@$$CBW4CURLoption@@PEAVOptionBase@curlpp@@@std@@PEAX@std@@@1@@Z
	??0?$_Alloc_construct_ptr@V?$allocator@U?$_Tree_node@U?$pair@QEAXPEBVEasy@curlpp@@@std@@PEAX@std@@@std@@@std@@QEAA@AEAV?$allocator@U?$_Tree_node@U?$pair@QEAXPEBVEasy@curlpp@@@std@@PEAX@std@@@1@@Z
	??0?$_Func_class@HNNNN@std@@QEAA@XZ
	??0?$_Func_class@HW4curl_infotype@@PEAD_K@std@@QEAA@XZ
	??0?$_Func_class@W4CURLcode@@PEAX@std@@QEAA@XZ
	??0?$_Func_class@_KPEAD_K_K@std@@QEAA@XZ
	??0?$_List_const_iterator@V?$_List_val@U?$_List_simple_types@V?$basic_string@DU?$char_traits@D@std@@V?$allocator@D@2@@std@@@std@@@std@@@std@@QEAA@PEAU?$_List_node@V?$basic_string@DU?$char_traits@D@std@@V?$allocator@D@2@@std@@PEAX@1@PEBV?$_List_val@U?$_List_simple_types@V?$basic_string@DU?$char_traits@D@std@@V?$allocator@D@2@@std@@@std@@@1@@Z
	??0?$_List_const_iterator@V?$_List_val@U?$_List_simple_types@V?$clone_ptr@VFormPart@curlpp@@@utilspp@@@std@@@std@@@std@@QEAA@PEAU?$_List_node@V?$clone_ptr@VFormPart@curlpp@@@utilspp@@PEAX@1@PEBV?$_List_val@U?$_List_simple_types@V?$clone_ptr@VFormPart@curlpp@@@utilspp@@@std@@@1@@Z
	??0?$_List_const_iterator@V?$_List_val@U?$_List_simple_types@V?$clone_ptr@VFormPart@curlpp@@@utilspp@@@std@@@std@@@std@@QEAA@XZ
	??0?$_List_iterator@V?$_List_val@U?$_List_simple_types@V?$basic_string@DU?$char_traits@D@std@@V?$allocator@D@2@@std@@@std@@@std@@@std@@QEAA@PEAU?$_List_node@V?$basic_string@DU?$char_traits@D@std@@V?$allocator@D@2@@std@@PEAX@1@PEBV?$_List_val@U?$_List_simple_types@V?$basic_string@DU?$char_traits@D@std@@V?$allocator@D@2@@std@@@std@@@1@@Z
	??0?$_List_iterator@V?$_List_val@U?$_List_simple_types@V?$clone_ptr@VFormPart@curlpp@@@utilspp@@@std@@@std@@@std@@QEAA@PEAU?$_List_node@V?$clone_ptr@VFormPart@curlpp@@@utilspp@@PEAX@1@PEBV?$_List_val@U?$_List_simple_types@V?$clone_ptr@VFormPart@curlpp@@@utilspp@@@std@@@1@@Z
	??0?$_List_node_insert_op2@V?$allocator@U?$_List_node@V?$basic_string@DU?$char_traits@D@std@@V?$allocator@D@2@@std@@PEAX@std@@@std@@@std@@QEAA@AEAV?$allocator@U?$_List_node@V?$basic_string@DU?$char_traits@D@std@@V?$allocator@D@2@@std@@PEAX@std@@@1@@Z
	??0?$_List_unchecked_const_iterator@V?$_List_val@U?$_List_simple_types@V?$basic_string@DU?$char_traits@D@std@@V?$allocator@D@2@@std@@@std@@@std@@U_Iterator_base0@2@@std@@QEAA@PEAU?$_List_node@V?$basic_string@DU?$char_traits@D@std@@V?$allocator@D@2@@std@@PEAX@1@PEBV?$_List_val@U?$_List_simple_types@V?$basic_string@DU?$char_traits@D@std@@V?$allocator@D@2@@std@@@std@@@1@@Z
	??0?$_List_unchecked_const_iterator@V?$_List_val@U?$_List_simple_types@V?$clone_ptr@VFormPart@curlpp@@@utilspp@@@std@@@std@@U_Iterator_base0@2@@std@@QEAA@PEAU?$_List_node@V?$clone_ptr@VFormPart@curlpp@@@utilspp@@PEAX@1@PEBV?$_List_val@U?$_List_simple_types@V?$clone_ptr@VFormPart@curlpp@@@utilspp@@@std@@@1@@Z
	??0?$_List_unchecked_const_iterator@V?$_List_val@U?$_List_simple_types@V?$clone_ptr@VFormPart@curlpp@@@utilspp@@@std@@@std@@U_Iterator_base0@2@@std@@QEAA@XZ
	??0?$_List_val@U?$_List_simple_types@U?$pair@PEBVEasy@curlpp@@UInfo@Multi@2@@std@@@std@@@std@@QEAA@XZ
	??0?$_List_val@U?$_List_simple_types@V?$basic_string@DU?$char_traits@D@std@@V?$allocator@D@2@@std@@@std@@@std@@QEAA@XZ
	??0?$_List_val@U?$_List_simple_types@V?$clone_ptr@VFormPart@curlpp@@@utilspp@@@std@@@std@@QEAA@XZ
	??0?$_String_val@U?$_Simple_types@D@std@@@std@@QEAA@XZ
	??0?$_Tree@V?$_Tmap_traits@PEAXPEBVEasy@curlpp@@U?$less@PEAX@std@@V?$allocator@U?$pair@QEAXPEBVEasy@curlpp@@@std@@@4@$0A@@std@@@std@@QEAA@AEBU?$less@PEAX@1@@Z
	??0?$_Tree@V?$_Tmap_traits@W4CURLoption@@PEAVOptionBase@curlpp@@U?$less@W4CURLoption@@@std@@V?$allocator@U?$pair@$$CBW4CURLoption@@PEAVOptionBase@curlpp@@@std@@@5@$0A@@std@@@std@@QEAA@AEBU?$less@W4CURLoption@@@1@@Z
	??0?$_Tree_const_iterator@V?$_Tree_val@U?$_Tree_simple_types@U?$pair@$$CBW4CURLoption@@PEAVOptionBase@curlpp@@@std@@@std@@@std@@@std@@QEAA@PEAU?$_Tree_node@U?$pair@$$CBW4CURLoption@@PEAVOptionBase@curlpp@@@std@@PEAX@1@PEBV?$_Tree_val@U?$_Tree_simple_types@U?$pair@$$CBW4CURLoption@@PEAVOptionBase@curlpp@@@std@@@std@@@1@@Z
	??0?$_Tree_const_iterator@V?$_Tree_val@U?$_Tree_simple_types@U?$pair@QEAXPEBVEasy@curlpp@@@std@@@std@@@std@@@std@@QEAA@PEAU?$_Tree_node@U?$pair@QEAXPEBVEasy@curlpp@@@std@@PEAX@1@PEBV?$_Tree_val@U?$_Tree_simple_types@U?$pair@QEAXPEBVEasy@curlpp@@@std@@@std@@@1@@Z
	??0?$_Tree_iterator@V?$_Tree_val@U?$_Tree_simple_types@U?$pair@$$CBW4CURLoption@@PEAVOptionBase@curlpp@@@std@@@std@@@std@@@std@@QEAA@PEAU?$_Tree_node@U?$pair@$$CBW4CURLoption@@PEAVOptionBase@curlpp@@@std@@PEAX@1@PEBV?$_Tree_val@U?$_Tree_simple_types@U?$pair@$$CBW4CURLoption@@PEAVOptionBase@curlpp@@@std@@@std@@@1@@Z
	??0?$_Tree_iterator@V?$_Tree_val@U?$_Tree_simple_types@U?$pair@QEAXPEBVEasy@curlpp@@@std@@@std@@@std@@@std@@QEAA@PEAU?$_Tree_node@U?$pair@QEAXPEBVEasy@curlpp@@@std@@PEAX@1@PEBV?$_Tree_val@U?$_Tree_simple_types@U?$pair@QEAXPEBVEasy@curlpp@@@std@@@std@@@1@@Z
	??0?$_Tree_temp_node_alloc@V?$allocator@U?$_Tree_node@U?$pair@$$CBW4CURLoption@@PEAVOptionBase@curlpp@@@std@@PEAX@std@@@std@@@std@@QEAA@AEAV?$allocator@U?$_Tree_node@U?$pair@$$CBW4CURLoption@@PEAVOptionBase@curlpp@@@std@@PEAX@std@@@1@@Z
	??0?$_Tree_temp_node_alloc@V?$allocator@U?$_Tree_node@U?$pair@QEAXPEBVEasy@curlpp@@@std@@PEAX@std@@@std@@@std@@QEAA@AEAV?$allocator@U?$_Tree_node@U?$pair@QEAXPEBVEasy@curlpp@@@std@@PEAX@std@@@1@@Z
	??0?$_Tree_unchecked_const_iterator@V?$_Tree_val@U?$_Tree_simple_types@U?$pair@$$CBW4CURLoption@@PEAVOptionBase@curlpp@@@std@@@std@@@std@@U_Iterator_base0@2@@std@@QEAA@PEAU?$_Tree_node@U?$pair@$$CBW4CURLoption@@PEAVOptionBase@curlpp@@@std@@PEAX@1@PEBV?$_Tree_val@U?$_Tree_simple_types@U?$pair@$$CBW4CURLoption@@PEAVOptionBase@curlpp@@@std@@@std@@@1@@Z
	??0?$_Tree_unchecked_const_iterator@V?$_Tree_val@U?$_Tree_simple_types@U?$pair@QEAXPEBVEasy@curlpp@@@std@@@std@@@std@@U_Iterator_base0@2@@std@@QEAA@PEAU?$_Tree_node@U?$pair@QEAXPEBVEasy@curlpp@@@std@@PEAX@1@PEBV?$_Tree_val@U?$_Tree_simple_types@U?$pair@QEAXPEBVEasy@curlpp@@@std@@@std@@@1@@Z
	??0?$_Tree_unchecked_iterator@V?$_Tree_val@U?$_Tree_simple_types@U?$pair@$$CBW4CURLoption@@PEAVOptionBase@curlpp@@@std@@@std@@@std@@@std@@QEAA@PEAU?$_Tree_node@U?$pair@$$CBW4CURLoption@@PEAVOptionBase@curlpp@@@std@@PEAX@1@PEBV?$_Tree_val@U?$_Tree_simple_types@U?$pair@$$CBW4CURLoption@@PEAVOptionBase@curlpp@@@std@@@std@@@1@@Z
	??0?$_Tree_unchecked_iterator@V?$_Tree_val@U?$_Tree_simple_types@U?$pair@QEAXPEBVEasy@curlpp@@@std@@@std@@@std@@@std@@QEAA@PEAU?$_Tree_node@U?$pair@QEAXPEBVEasy@curlpp@@@std@@PEAX@1@PEBV?$_Tree_val@U?$_Tree_simple_types@U?$pair@QEAXPEBVEasy@curlpp@@@std@@@std@@@1@@Z
	??0?$_Tree_val@U?$_Tree_simple_types@U?$pair@$$CBW4CURLoption@@PEAVOptionBase@curlpp@@@std@@@std@@@std@@QEAA@XZ
	??0?$_Tree_val@U?$_Tree_simple_types@U?$pair@QEAXPEBVEasy@curlpp@@@std@@@std@@@std@@QEAA@XZ
	??0?$allocator@D@std@@QEAA@XZ
	??0?$allocator@U?$_List_node@U?$pair@PEBVEasy@curlpp@@UInfo@Multi@2@@std@@PEAX@std@@@std@@QEAA@XZ
	??0?$allocator@U?$_List_node@V?$basic_string@DU?$char_traits@D@std@@V?$allocator@D@2@@std@@PEAX@std@@@std@@QEAA@XZ
	??0?$allocator@U?$_List_node@V?$clone_ptr@VFormPart@curlpp@@@utilspp@@PEAX@std@@@std@@QEAA@XZ
	??0?$allocator@U?$_Tree_node@U?$pair@$$CBW4CURLoption@@PEAVOptionBase@curlpp@@@std@@PEAX@std@@@std@@QEAA@XZ
	??0?$allocator@U?$_Tree_node@U?$pair@QEAXPEBVEasy@curlpp@@@std@@PEAX@std@@@std@@QEAA@XZ
	??0?$basic_string@DU?$char_traits@D@std@@V?$allocator@D@2@@std@@QEAA@$$QEAV01@@Z
	??0?$basic_string@DU?$char_traits@D@std@@V?$allocator@D@2@@std@@QEAA@AEBV01@@Z
	??0?$basic_string@DU?$char_traits@D@std@@V?$allocator@D@2@@std@@QEAA@QEBD@Z
	??0?$basic_string@DU?$char_traits@D@std@@V?$allocator@D@2@@std@@QEAA@XZ
	??0?$clone_ptr@VFormPart@curlpp@@@utilspp@@QEAA@AEBV01@@Z
	??0?$function@$$A6A?AW4CURLcode@@PEAX@Z@std@@QEAA@AEBV01@@Z
	??0?$function@$$A6A?AW4CURLcode@@PEAX@Z@std@@QEAA@XZ
	??0?$function@$$A6AHNNNN@Z@std@@QEAA@AEBV01@@Z
	??0?$function@$$A6AHNNNN@Z@std@@QEAA@XZ
	??0?$function@$$A6AHW4curl_infotype@@PEAD_K@Z@std@@QEAA@AEBV01@@Z
	??0?$function@$$A6AHW4curl_infotype@@PEAD_K@Z@std@@QEAA@XZ
	??0?$function@$$A6A_KPEAD_K1@Z@std@@QEAA@AEBV01@@Z
	??0?$function@$$A6A_KPEAD_K1@Z@std@@QEAA@XZ
	??0?$list@U?$pair@PEBVEasy@curlpp@@UInfo@Multi@2@@std@@V?$allocator@U?$pair@PEBVEasy@curlpp@@UInfo@Multi@2@@std@@@2@@std@@QEAA@$$QEAV01@@Z
	??0?$list@U?$pair@PEBVEasy@curlpp@@UInfo@Multi@2@@std@@V?$allocator@U?$pair@PEBVEasy@curlpp@@UInfo@Multi@2@@std@@@2@@std@@QEAA@XZ
	??0?$list@V?$basic_string@DU?$char_traits@D@std@@V?$allocator@D@2@@std@@V?$allocator@V?$basic_string@DU?$char_traits@D@std@@V?$allocator@D@2@@std@@@2@@std@@QEAA@AEBV01@@Z
	??0?$list@V?$basic_string@DU?$char_traits@D@std@@V?$allocator@D@2@@std@@V?$allocator@V?$basic_string@DU?$char_traits@D@std@@V?$allocator@D@2@@std@@@2@@std@@QEAA@XZ
	??0?$list@V?$clone_ptr@VFormPart@curlpp@@@utilspp@@V?$allocator@V?$clone_ptr@VFormPart@curlpp@@@utilspp@@@std@@@std@@QEAA@$$QEAV01@@Z
	??0?$list@V?$clone_ptr@VFormPart@curlpp@@@utilspp@@V?$allocator@V?$clone_ptr@VFormPart@curlpp@@@utilspp@@@std@@@std@@QEAA@XZ
	??0?$map@PEAXPEBVEasy@curlpp@@U?$less@PEAX@std@@V?$allocator@U?$pair@QEAXPEBVEasy@curlpp@@@std@@@4@@std@@QEAA@XZ
	??0?$map@W4CURLoption@@PEAVOptionBase@curlpp@@U?$less@W4CURLoption@@@std@@V?$allocator@U?$pair@$$CBW4CURLoption@@PEAVOptionBase@curlpp@@@std@@@5@@std@@QEAA@XZ
	??0?$tuple@$$V@std@@QEAA@AEBV01@@Z
	??0?$tuple@AEBQEAX@std@@QEAA@$$QEAV01@@Z
	??0CallbackExceptionBase@curlpp@@IEAA@AEBV01@@Z
	??0CallbackExceptionBase@curlpp@@IEAA@XZ
	??0Cleanup@curlpp@@QEAA@XZ
	??0Content@FormParts@curlpp@@QEAA@AEBV012@@Z
	??0Content@FormParts@curlpp@@QEAA@AEBV?$basic_string@DU?$char_traits@D@std@@V?$allocator@D@2@@std@@00@Z
	??0Content@FormParts@curlpp@@QEAA@AEBV?$basic_string@DU?$char_traits@D@std@@V?$allocator@D@2@@std@@0@Z
	??0Content@FormParts@curlpp@@QEAA@PEBD00@Z
	??0Content@FormParts@curlpp@@QEAA@PEBD0@Z
	??0CurlHandle@internal@curlpp@@QEAA@PEAX@Z
	??0CurlHandle@internal@curlpp@@QEAA@XZ
	??0Easy@curlpp@@QEAA@V?$unique_ptr@VCurlHandle@internal@curlpp@@U?$default_delete@VCurlHandle@internal@curlpp@@@std@@@std@@@Z
	??0Easy@curlpp@@QEAA@XZ
	??0File@FormParts@curlpp@@QEAA@AEBV012@@Z
	??0File@FormParts@curlpp@@QEAA@AEBV?$basic_string@DU?$char_traits@D@std@@V?$allocator@D@2@@std@@00@Z
	??0File@FormParts@curlpp@@QEAA@AEBV?$basic_string@DU?$char_traits@D@std@@V?$allocator@D@2@@std@@0@Z
	??0File@FormParts@curlpp@@QEAA@PEBD00@Z
	??0File@FormParts@curlpp@@QEAA@PEBD0@Z
	??0FormPart@curlpp@@QEAA@AEBV01@@Z
	??0FormPart@curlpp@@QEAA@AEBV?$basic_string@DU?$char_traits@D@std@@V?$allocator@D@2@@std@@@Z
	??0FormPart@curlpp@@QEAA@PEBD@Z
	??0HttpPost@curlpp@@QEAA@AEBV?$list@V?$clone_ptr@VFormPart@curlpp@@@utilspp@@V?$allocator@V?$clone_ptr@VFormPart@curlpp@@@utilspp@@@std@@@std@@@Z
	??0HttpPost@curlpp@@QEAA@XZ
	??0LibcurlLogicError@curlpp@@QEAA@AEBV01@@Z
	??0LibcurlLogicError@curlpp@@QEAA@AEBV?$basic_string@DU?$char_traits@D@std@@V?$allocator@D@2@@std@@W4CURLcode@@@Z
	??0LibcurlLogicError@curlpp@@QEAA@PEBDW4CURLcode@@@Z
	??0LibcurlRuntimeError@curlpp@@QEAA@AEBV01@@Z
	??0LibcurlRuntimeError@curlpp@@QEAA@AEBV?$basic_string@DU?$char_traits@D@std@@V?$allocator@D@2@@std@@W4CURLcode@@@Z
	??0LibcurlRuntimeError@curlpp@@QEAA@PEBDW4CURLcode@@@Z
	??0LogicError@curlpp@@QEAA@AEBV01@@Z
	??0LogicError@curlpp@@QEAA@AEBV?$basic_string@DU?$char_traits@D@std@@V?$allocator@D@2@@std@@@Z
	??0LogicError@curlpp@@QEAA@PEBD@Z
	??0Multi@curlpp@@QEAA@XZ
	??0NotAvailable@curlpp@@QEAA@XZ
	??0OptionBase@curlpp@@QEAA@W4CURLoption@@@Z
	??0OptionList@internal@curlpp@@QEAA@AEBV012@@Z
	??0OptionList@internal@curlpp@@QEAA@XZ
	??0RuntimeError@curlpp@@QEAA@AEBV01@@Z
	??0RuntimeError@curlpp@@QEAA@AEBV?$basic_string@DU?$char_traits@D@std@@V?$allocator@D@2@@std@@@Z
	??0RuntimeError@curlpp@@QEAA@PEBD@Z
	??0SList@internal@curlpp@@QEAA@AEBV012@@Z
	??0SList@internal@curlpp@@QEAA@AEBV?$list@V?$basic_string@DU?$char_traits@D@std@@V?$allocator@D@2@@std@@V?$allocator@V?$basic_string@DU?$char_traits@D@std@@V?$allocator@D@2@@std@@@2@@std@@@Z
	??0SList@internal@curlpp@@QEAA@PEAUcurl_slist@@@Z
	??0SList@internal@curlpp@@QEAA@XZ
	??0UnknowException@curlpp@@QEAA@AEBV01@@Z
	??0UnknowException@curlpp@@QEAA@XZ
	??0UnsetOption@curlpp@@QEAA@AEBV01@@Z
	??0UnsetOption@curlpp@@QEAA@AEBV?$basic_string@DU?$char_traits@D@std@@V?$allocator@D@2@@std@@@Z
	??0UnsetOption@curlpp@@QEAA@PEBD@Z
	??0_Bxty@?$_String_val@U?$_Simple_types@D@std@@@std@@QEAA@XZ
	??0_Fake_proxy_ptr_impl@std@@QEAA@AEBU_Fake_allocator@1@AEBU_Container_base0@1@@Z
	??0_Sentry_base@?$basic_ostream@DU?$char_traits@D@std@@@std@@QEAA@AEAV12@@Z
	??0bad_alloc@std@@AEAA@QEBD@Z
	??0bad_alloc@std@@QEAA@AEBV01@@Z
	??0bad_array_new_length@std@@QEAA@AEBV01@@Z
	??0bad_array_new_length@std@@QEAA@XZ
	??0exception@std@@QEAA@AEBV01@@Z
	??0exception@std@@QEAA@QEBD@Z
	??0exception@std@@QEAA@QEBDH@Z
	??0logic_error@std@@QEAA@AEBV01@@Z
	??0logic_error@std@@QEAA@AEBV?$basic_string@DU?$char_traits@D@std@@V?$allocator@D@2@@1@@Z
	??0runtime_error@std@@QEAA@AEBV01@@Z
	??0runtime_error@std@@QEAA@AEBV?$basic_string@DU?$char_traits@D@std@@V?$allocator@D@2@@1@@Z
	??0runtime_error@std@@QEAA@PEBD@Z
	??0sentry@?$basic_ostream@DU?$char_traits@D@std@@@std@@QEAA@AEAV12@@Z
	??1?$CallbackException@VLogicError@curlpp@@@curlpp@@UEAA@XZ
	??1?$CallbackException@VUnknowException@curlpp@@@curlpp@@UEAA@XZ
	??1?$Option@PEAV?$basic_ostream@DU?$char_traits@D@std@@@std@@@curlpp@@UEAA@XZ
	??1?$OptionTrait@PEAV?$basic_ostream@DU?$char_traits@D@std@@@std@@$0CHBB@@curlpp@@UEAA@XZ
	??1?$_Alloc_construct_ptr@V?$allocator@U?$_List_node@U?$pair@PEBVEasy@curlpp@@UInfo@Multi@2@@std@@PEAX@std@@@std@@@std@@QEAA@XZ
	??1?$_Alloc_construct_ptr@V?$allocator@U?$_List_node@V?$basic_string@DU?$char_traits@D@std@@V?$allocator@D@2@@std@@PEAX@std@@@std@@@std@@QEAA@XZ
	??1?$_Alloc_construct_ptr@V?$allocator@U?$_List_node@V?$clone_ptr@VFormPart@curlpp@@@utilspp@@PEAX@std@@@std@@@std@@QEAA@XZ
	??1?$_Alloc_construct_ptr@V?$allocator@U?$_Tree_node@U?$pair@$$CBW4CURLoption@@PEAVOptionBase@curlpp@@@std@@PEAX@std@@@std@@@std@@QEAA@XZ
	??1?$_Alloc_construct_ptr@V?$allocator@U?$_Tree_node@U?$pair@QEAXPEBVEasy@curlpp@@@std@@PEAX@std@@@std@@@std@@QEAA@XZ
	??1?$_Compressed_pair@V?$allocator@D@std@@V?$_String_val@U?$_Simple_types@D@std@@@2@$00@std@@QEAA@XZ
	??1?$_Func_class@HNNNN@std@@QEAA@XZ
	??1?$_Func_class@HW4curl_infotype@@PEAD_K@std@@QEAA@XZ
	??1?$_Func_class@W4CURLcode@@PEAX@std@@QEAA@XZ
	??1?$_Func_class@_KPEAD_K_K@std@@QEAA@XZ
	??1?$_List_node_emplace_op2@V?$allocator@U?$_List_node@U?$pair@PEBVEasy@curlpp@@UInfo@Multi@2@@std@@PEAX@std@@@std@@@std@@QEAA@XZ
	??1?$_List_node_emplace_op2@V?$allocator@U?$_List_node@V?$basic_string@DU?$char_traits@D@std@@V?$allocator@D@2@@std@@PEAX@std@@@std@@@std@@QEAA@XZ
	??1?$_List_node_emplace_op2@V?$allocator@U?$_List_node@V?$clone_ptr@VFormPart@curlpp@@@utilspp@@PEAX@std@@@std@@@std@@QEAA@XZ
	??1?$_List_node_insert_op2@V?$allocator@U?$_List_node@V?$basic_string@DU?$char_traits@D@std@@V?$allocator@D@2@@std@@PEAX@std@@@std@@@std@@QEAA@XZ
	??1?$_String_val@U?$_Simple_types@D@std@@@std@@QEAA@XZ
	??1?$_Tree@V?$_Tmap_traits@PEAXPEBVEasy@curlpp@@U?$less@PEAX@std@@V?$allocator@U?$pair@QEAXPEBVEasy@curlpp@@@std@@@4@$0A@@std@@@std@@QEAA@XZ
	??1?$_Tree@V?$_Tmap_traits@W4CURLoption@@PEAVOptionBase@curlpp@@U?$less@W4CURLoption@@@std@@V?$allocator@U?$pair@$$CBW4CURLoption@@PEAVOptionBase@curlpp@@@std@@@5@$0A@@std@@@std@@QEAA@XZ
	??1?$_Tree_temp_node@V?$allocator@U?$_Tree_node@U?$pair@$$CBW4CURLoption@@PEAVOptionBase@curlpp@@@std@@PEAX@std@@@std@@@std@@QEAA@XZ
	??1?$_Tree_temp_node@V?$allocator@U?$_Tree_node@U?$pair@QEAXPEBVEasy@curlpp@@@std@@PEAX@std@@@std@@@std@@QEAA@XZ
	??1?$_Tree_temp_node_alloc@V?$allocator@U?$_Tree_node@U?$pair@$$CBW4CURLoption@@PEAVOptionBase@curlpp@@@std@@PEAX@std@@@std@@@std@@QEAA@XZ
	??1?$_Tree_temp_node_alloc@V?$allocator@U?$_Tree_node@U?$pair@QEAXPEBVEasy@curlpp@@@std@@PEAX@std@@@std@@@std@@QEAA@XZ
	??1?$basic_string@DU?$char_traits@D@std@@V?$allocator@D@2@@std@@QEAA@XZ
	??1?$clone_ptr@VFormPart@curlpp@@@utilspp@@QEAA@XZ
	??1?$function@$$A6A?AW4CURLcode@@PEAX@Z@std@@QEAA@XZ
	??1?$function@$$A6AHNNNN@Z@std@@QEAA@XZ
	??1?$function@$$A6AHW4curl_infotype@@PEAD_K@Z@std@@QEAA@XZ
	??1?$function@$$A6A_KPEAD_K1@Z@std@@QEAA@XZ
	??1?$list@U?$pair@PEBVEasy@curlpp@@UInfo@Multi@2@@std@@V?$allocator@U?$pair@PEBVEasy@curlpp@@UInfo@Multi@2@@std@@@2@@std@@QEAA@XZ
	??1?$list@V?$basic_string@DU?$char_traits@D@std@@V?$allocator@D@2@@std@@V?$allocator@V?$basic_string@DU?$char_traits@D@std@@V?$allocator@D@2@@std@@@2@@std@@QEAA@XZ
	??1?$list@V?$clone_ptr@VFormPart@curlpp@@@utilspp@@V?$allocator@V?$clone_ptr@VFormPart@curlpp@@@utilspp@@@std@@@std@@QEAA@XZ
	??1?$map@PEAXPEBVEasy@curlpp@@U?$less@PEAX@std@@V?$allocator@U?$pair@QEAXPEBVEasy@curlpp@@@std@@@4@@std@@QEAA@XZ
	??1?$map@W4CURLoption@@PEAVOptionBase@curlpp@@U?$less@W4CURLoption@@@std@@V?$allocator@U?$pair@$$CBW4CURLoption@@PEAVOptionBase@curlpp@@@std@@@5@@std@@QEAA@XZ
	??1?$unique_ptr@VCallbackExceptionBase@curlpp@@U?$default_delete@VCallbackExceptionBase@curlpp@@@std@@@std@@QEAA@XZ
	??1?$unique_ptr@VCurlHandle@internal@curlpp@@U?$default_delete@VCurlHandle@internal@curlpp@@@std@@@std@@QEAA@XZ
	??1?$unique_ptr@VOptionBase@curlpp@@U?$default_delete@VOptionBase@curlpp@@@std@@@std@@QEAA@XZ
	??1CallbackExceptionBase@curlpp@@UEAA@XZ
	??1Cleanup@curlpp@@QEAA@XZ
	??1Content@FormParts@curlpp@@UEAA@XZ
	??1CurlHandle@internal@curlpp@@UEAA@XZ
	??1Easy@curlpp@@UEAA@XZ
	??1File@FormParts@curlpp@@UEAA@XZ
	??1FormPart@curlpp@@UEAA@XZ
	??1HttpPost@curlpp@@QEAA@XZ
	??1LibcurlLogicError@curlpp@@UEAA@XZ
	??1LibcurlRuntimeError@curlpp@@UEAA@XZ
	??1LogicError@curlpp@@UEAA@XZ
	??1Multi@curlpp@@QEAA@XZ
	??1NotAvailable@curlpp@@UEAA@XZ
	??1OptionBase@curlpp@@UEAA@XZ
	??1OptionList@internal@curlpp@@UEAA@XZ
	??1RuntimeError@curlpp@@UEAA@XZ
	??1SList@internal@curlpp@@QEAA@XZ
	??1UnknowException@curlpp@@UEAA@XZ
	??1UnsetOption@curlpp@@UEAA@XZ
	??1_Bxty@?$_String_val@U?$_Simple_types@D@std@@@std@@QEAA@XZ
	??1_Sentry_base@?$basic_ostream@DU?$char_traits@D@std@@@std@@QEAA@XZ
	??1bad_alloc@std@@UEAA@XZ
	??1bad_array_new_length@std@@UEAA@XZ
	??1exception@std@@UEAA@XZ
	??1logic_error@std@@UEAA@XZ
	??1runtime_error@std@@UEAA@XZ
	??1sentry@?$basic_ostream@DU?$char_traits@D@std@@@std@@QEAA@XZ
	??2@YAPEAX_KPEAX@Z
	??4?$basic_string@DU?$char_traits@D@std@@V?$allocator@D@2@@std@@QEAAAEAV01@AEBV01@@Z
	??4?$basic_string@DU?$char_traits@D@std@@V?$allocator@D@2@@std@@QEAAAEAV01@QEBD@Z
	??4?$function@$$A6A?AW4CURLcode@@PEAX@Z@std@@QEAAAEAV01@AEBV01@@Z
	??4?$function@$$A6AHNNNN@Z@std@@QEAAAEAV01@AEBV01@@Z
	??4?$function@$$A6AHW4curl_infotype@@PEAD_K@Z@std@@QEAAAEAV01@AEBV01@@Z
	??4?$function@$$A6A_KPEAD_K1@Z@std@@QEAAAEAV01@AEBV01@@Z
	??4?$list@V?$basic_string@DU?$char_traits@D@std@@V?$allocator@D@2@@std@@V?$allocator@V?$basic_string@DU?$char_traits@D@std@@V?$allocator@D@2@@std@@@2@@std@@QEAAAEAV01@$$QEAV01@@Z
	??4?$list@V?$basic_string@DU?$char_traits@D@std@@V?$allocator@D@2@@std@@V?$allocator@V?$basic_string@DU?$char_traits@D@std@@V?$allocator@D@2@@std@@@2@@std@@QEAAAEAV01@AEBV01@@Z
	??4HttpPost@curlpp@@QEAAAEAV01@AEBV?$list@V?$clone_ptr@VFormPart@curlpp@@@utilspp@@V?$allocator@V?$clone_ptr@VFormPart@curlpp@@@utilspp@@@std@@@std@@@Z
	??4SList@internal@curlpp@@QEAAAEAV012@AEBV?$list@V?$basic_string@DU?$char_traits@D@std@@V?$allocator@D@2@@std@@V?$allocator@V?$basic_string@DU?$char_traits@D@std@@V?$allocator@D@2@@std@@@2@@std@@@Z
	??6@YAAEAV?$basic_ostream@DU?$char_traits@D@std@@@std@@AEAV01@AEBV?$OptionTrait@V?$basic_string@DU?$char_traits@D@std@@V?$allocator@D@2@@std@@$0CHBC@@curlpp@@@Z
	??6@YAAEAV?$basic_ostream@DU?$char_traits@D@std@@@std@@AEAV01@AEBV?$list@V?$basic_string@DU?$char_traits@D@std@@V?$allocator@D@2@@std@@V?$allocator@V?$basic_string@DU?$char_traits@D@std@@V?$allocator@D@2@@std@@@2@@1@@Z
	??6@YAAEAV?$basic_ostream@DU?$char_traits@D@std@@@std@@AEAV01@AEBVEasy@curlpp@@@Z
	??8?$_List_const_iterator@V?$_List_val@U?$_List_simple_types@V?$basic_string@DU?$char_traits@D@std@@V?$allocator@D@2@@std@@@std@@@std@@@std@@QEBA_NAEBV01@@Z
	??8?$_List_const_iterator@V?$_List_val@U?$_List_simple_types@V?$clone_ptr@VFormPart@curlpp@@@utilspp@@@std@@@std@@@std@@QEBA_NAEBV01@@Z
	??8?$_List_unchecked_const_iterator@V?$_List_val@U?$_List_simple_types@V?$basic_string@DU?$char_traits@D@std@@V?$allocator@D@2@@std@@@std@@@std@@U_Iterator_base0@2@@std@@QEBA_NAEBV01@@Z
	??8?$_Tree_const_iterator@V?$_Tree_val@U?$_Tree_simple_types@U?$pair@$$CBW4CURLoption@@PEAVOptionBase@curlpp@@@std@@@std@@@std@@@std@@QEBA_NAEBV01@@Z
	??8?$_Tree_unchecked_const_iterator@V?$_Tree_val@U?$_Tree_simple_types@U?$pair@QEAXPEBVEasy@curlpp@@@std@@@std@@@std@@U_Iterator_base0@2@@std@@QEBA_NAEBV01@@Z
	??9?$_List_const_iterator@V?$_List_val@U?$_List_simple_types@V?$basic_string@DU?$char_traits@D@std@@V?$allocator@D@2@@std@@@std@@@std@@@std@@QEBA_NAEBV01@@Z
	??9?$_List_const_iterator@V?$_List_val@U?$_List_simple_types@V?$clone_ptr@VFormPart@curlpp@@@utilspp@@@std@@@std@@@std@@QEBA_NAEBV01@@Z
	??9?$_List_unchecked_const_iterator@V?$_List_val@U?$_List_simple_types@V?$basic_string@DU?$char_traits@D@std@@V?$allocator@D@2@@std@@@std@@@std@@U_Iterator_base0@2@@std@@QEBA_NAEBV01@@Z
	??9?$_Tree_const_iterator@V?$_Tree_val@U?$_Tree_simple_types@U?$pair@$$CBW4CURLoption@@PEAVOptionBase@curlpp@@@std@@@std@@@std@@@std@@QEBA_NAEBV01@@Z
	??9?$_Tree_unchecked_const_iterator@V?$_Tree_val@U?$_Tree_simple_types@U?$pair@QEAXPEBVEasy@curlpp@@@std@@@std@@@std@@U_Iterator_base0@2@@std@@QEBA_NAEBV01@@Z
	??A?$map@PEAXPEBVEasy@curlpp@@U?$less@PEAX@std@@V?$allocator@U?$pair@QEAXPEBVEasy@curlpp@@@std@@@4@@std@@QEAAAEAPEBVEasy@curlpp@@AEBQEAX@Z
	??B?$function@$$A6A?AW4CURLcode@@PEAX@Z@std@@QEBA_NXZ
	??B?$function@$$A6AHNNNN@Z@std@@QEBA_NXZ
	??B?$function@$$A6AHW4curl_infotype@@PEAD_K@Z@std@@QEBA_NXZ
	??B?$function@$$A6A_KPEAD_K1@Z@std@@QEBA_NXZ
	??BSList@internal@curlpp@@QEAA?AV?$list@V?$basic_string@DU?$char_traits@D@std@@V?$allocator@D@2@@std@@V?$allocator@V?$basic_string@DU?$char_traits@D@std@@V?$allocator@D@2@@std@@@2@@std@@XZ
	??Bsentry@?$basic_ostream@DU?$char_traits@D@std@@@std@@QEBA_NXZ
	??C?$_Tree_const_iterator@V?$_Tree_val@U?$_Tree_simple_types@U?$pair@$$CBW4CURLoption@@PEAVOptionBase@curlpp@@@std@@@std@@@std@@@std@@QEBAPEBU?$pair@$$CBW4CURLoption@@PEAVOptionBase@curlpp@@@1@XZ
	??C?$_Tree_iterator@V?$_Tree_val@U?$_Tree_simple_types@U?$pair@QEAXPEBVEasy@curlpp@@@std@@@std@@@std@@@std@@QEBAPEAU?$pair@QEAXPEBVEasy@curlpp@@@1@XZ
	??C?$clone_ptr@VFormPart@curlpp@@@utilspp@@QEAAPEAVFormPart@curlpp@@XZ
	??C?$clone_ptr@VFormPart@curlpp@@@utilspp@@QEBAPEBVFormPart@curlpp@@XZ
	??C?$unique_ptr@VCallbackExceptionBase@curlpp@@U?$default_delete@VCallbackExceptionBase@curlpp@@@std@@@std@@QEBAPEAVCallbackExceptionBase@curlpp@@XZ
	??C?$unique_ptr@VCurlHandle@internal@curlpp@@U?$default_delete@VCurlHandle@internal@curlpp@@@std@@@std@@QEBAPEAVCurlHandle@internal@curlpp@@XZ
	??C?$unique_ptr@VOptionBase@curlpp@@U?$default_delete@VOptionBase@curlpp@@@std@@@std@@QEBAPEAVOptionBase@curlpp@@XZ
	??D?$_List_const_iterator@V?$_List_val@U?$_List_simple_types@V?$basic_string@DU?$char_traits@D@std@@V?$allocator@D@2@@std@@@std@@@std@@@std@@QEBAAEBV?$basic_string@DU?$char_traits@D@std@@V?$allocator@D@2@@1@XZ
	??D?$_List_const_iterator@V?$_List_val@U?$_List_simple_types@V?$clone_ptr@VFormPart@curlpp@@@utilspp@@@std@@@std@@@std@@QEBAAEBV?$clone_ptr@VFormPart@curlpp@@@utilspp@@XZ
	??D?$_List_unchecked_const_iterator@V?$_List_val@U?$_List_simple_types@V?$basic_string@DU?$char_traits@D@std@@V?$allocator@D@2@@std@@@std@@@std@@U_Iterator_base0@2@@std@@QEBAAEBV?$basic_string@DU?$char_traits@D@std@@V?$allocator@D@2@@1@XZ
	??D?$_Tree_const_iterator@V?$_Tree_val@U?$_Tree_simple_types@U?$pair@$$CBW4CURLoption@@PEAVOptionBase@curlpp@@@std@@@std@@@std@@@std@@QEBAAEBU?$pair@$$CBW4CURLoption@@PEAVOptionBase@curlpp@@@1@XZ
	??D?$_Tree_const_iterator@V?$_Tree_val@U?$_Tree_simple_types@U?$pair@QEAXPEBVEasy@curlpp@@@std@@@std@@@std@@@std@@QEBAAEBU?$pair@QEAXPEBVEasy@curlpp@@@1@XZ
	??D?$_Tree_iterator@V?$_Tree_val@U?$_Tree_simple_types@U?$pair@$$CBW4CURLoption@@PEAVOptionBase@curlpp@@@std@@@std@@@std@@@std@@QEBAAEAU?$pair@$$CBW4CURLoption@@PEAVOptionBase@curlpp@@@1@XZ
	??D?$_Tree_iterator@V?$_Tree_val@U?$_Tree_simple_types@U?$pair@QEAXPEBVEasy@curlpp@@@std@@@std@@@std@@@std@@QEBAAEAU?$pair@QEAXPEBVEasy@curlpp@@@1@XZ
	??D?$unique_ptr@VCurlHandle@internal@curlpp@@U?$default_delete@VCurlHandle@internal@curlpp@@@std@@@std@@QEBAAEAVCurlHandle@internal@curlpp@@XZ
	??E?$_List_const_iterator@V?$_List_val@U?$_List_simple_types@V?$basic_string@DU?$char_traits@D@std@@V?$allocator@D@2@@std@@@std@@@std@@@std@@QEAA?AV01@H@Z
	??E?$_List_const_iterator@V?$_List_val@U?$_List_simple_types@V?$basic_string@DU?$char_traits@D@std@@V?$allocator@D@2@@std@@@std@@@std@@@std@@QEAAAEAV01@XZ
	??E?$_List_const_iterator@V?$_List_val@U?$_List_simple_types@V?$clone_ptr@VFormPart@curlpp@@@utilspp@@@std@@@std@@@std@@QEAA?AV01@H@Z
	??E?$_List_const_iterator@V?$_List_val@U?$_List_simple_types@V?$clone_ptr@VFormPart@curlpp@@@utilspp@@@std@@@std@@@std@@QEAAAEAV01@XZ
	??E?$_List_unchecked_const_iterator@V?$_List_val@U?$_List_simple_types@V?$basic_string@DU?$char_traits@D@std@@V?$allocator@D@2@@std@@@std@@@std@@U_Iterator_base0@2@@std@@QEAAAEAV01@XZ
	??E?$_Tree_const_iterator@V?$_Tree_val@U?$_Tree_simple_types@U?$pair@$$CBW4CURLoption@@PEAVOptionBase@curlpp@@@std@@@std@@@std@@@std@@QEAA?AV01@H@Z
	??E?$_Tree_const_iterator@V?$_Tree_val@U?$_Tree_simple_types@U?$pair@$$CBW4CURLoption@@PEAVOptionBase@curlpp@@@std@@@std@@@std@@@std@@QEAAAEAV01@XZ
	??E?$_Tree_iterator@V?$_Tree_val@U?$_Tree_simple_types@U?$pair@$$CBW4CURLoption@@PEAVOptionBase@curlpp@@@std@@@std@@@std@@@std@@QEAA?AV01@H@Z
	??E?$_Tree_unchecked_const_iterator@V?$_Tree_val@U?$_Tree_simple_types@U?$pair@$$CBW4CURLoption@@PEAVOptionBase@curlpp@@@std@@@std@@@std@@U_Iterator_base0@2@@std@@QEAAAEAV01@XZ
	??E?$_Tree_unchecked_const_iterator@V?$_Tree_val@U?$_Tree_simple_types@U?$pair@QEAXPEBVEasy@curlpp@@@std@@@std@@@std@@U_Iterator_base0@2@@std@@QEAA?AV01@H@Z
	??E?$_Tree_unchecked_const_iterator@V?$_Tree_val@U?$_Tree_simple_types@U?$pair@QEAXPEBVEasy@curlpp@@@std@@@std@@@std@@U_Iterator_base0@2@@std@@QEAAAEAV01@XZ
	??MOptionBase@curlpp@@UEBA_NAEBV01@@Z
	??R<lambda_66f57f934f28d61049862f64df852ff0>@@QEBA@QEAD_KQEBD@Z
	??R?$_Func_class@HNNNN@std@@QEBAHNNNN@Z
	??R?$_Func_class@HW4curl_infotype@@PEAD_K@std@@QEBAHW4curl_infotype@@PEAD_K@Z
	??R?$_Func_class@W4CURLcode@@PEAX@std@@QEBA?AW4CURLcode@@PEAX@Z
	??R?$_Func_class@_KPEAD_K_K@std@@QEBA_KPEAD_K1@Z
	??R?$default_delete@VCallbackExceptionBase@curlpp@@@std@@QEBAXPEAVCallbackExceptionBase@curlpp@@@Z
	??R?$default_delete@VCurlHandle@internal@curlpp@@@std@@QEBAXPEAVCurlHandle@internal@curlpp@@@Z
	??R?$default_delete@VOptionBase@curlpp@@@std@@QEBAXPEAVOptionBase@curlpp@@@Z
	??R?$less@PEAX@std@@QEBA_NAEBQEAX0@Z
	??R?$less@W4CURLoption@@@std@@QEBA_NAEBW4CURLoption@@0@Z
	??_7?$CallbackException@VLogicError@curlpp@@@curlpp@@6B@
	??_7?$CallbackException@VUnknowException@curlpp@@@curlpp@@6B@
	??_7?$Option@PEAV?$basic_ostream@DU?$char_traits@D@std@@@std@@@curlpp@@6B@
	??_7?$OptionTrait@PEAV?$basic_ostream@DU?$char_traits@D@std@@@std@@$0CHBB@@curlpp@@6B@
	??_7CallbackExceptionBase@curlpp@@6B@
	??_7Content@FormParts@curlpp@@6B@
	??_7CurlHandle@internal@curlpp@@6B@
	??_7Easy@curlpp@@6B@
	??_7File@FormParts@curlpp@@6B@
	??_7FormPart@curlpp@@6B@
	??_7LibcurlLogicError@curlpp@@6B@
	??_7LibcurlRuntimeError@curlpp@@6B@
	??_7LogicError@curlpp@@6B@
	??_7NotAvailable@curlpp@@6B@
	??_7OptionBase@curlpp@@6B@
	??_7OptionList@internal@curlpp@@6B@
	??_7RuntimeError@curlpp@@6B@
	??_7UnknowException@curlpp@@6B@
	??_7UnsetOption@curlpp@@6B@
	??_7bad_alloc@std@@6B@
	??_7bad_array_new_length@std@@6B@
	??_7exception@std@@6B@
	??_7logic_error@std@@6B@
	??_7runtime_error@std@@6B@
	?DebugCallback@Callbacks@internal@curlpp@@SAHPEAXW4curl_infotype@@PEAD_KPEAVCurlHandle@23@@Z
	?HeaderCallback@Callbacks@internal@curlpp@@SA_KPEAD_K1PEAVCurlHandle@23@@Z
	?ProgressCallback@Callbacks@internal@curlpp@@SAHPEAVCurlHandle@23@NNNN@Z
	?ReadCallback@Callbacks@internal@curlpp@@SA_KPEAD_K1PEAVCurlHandle@23@@Z
	?SslCtxCallback@Callbacks@internal@curlpp@@SA?AW4CURLcode@@PEAX0PEAVCurlHandle@23@@Z
	?StreamReadCallback@Callbacks@internal@curlpp@@SA_KPEAD_K1PEAV?$basic_istream@DU?$char_traits@D@std@@@std@@@Z
	?StreamWriteCallback@Callbacks@internal@curlpp@@SA_KPEAD_K1PEAV?$basic_ostream@DU?$char_traits@D@std@@@std@@@Z
	?WriteCallback@Callbacks@internal@curlpp@@SA_KPEAD_K1PEAVCurlHandle@23@@Z
	?_Activate_SSO_buffer@?$_String_val@U?$_Simple_types@D@std@@@std@@QEAAXXZ
	?_Adjust_manually_vector_aligned@std@@YAXAEAPEAXAEA_K@Z
	?_Adopt@_Iterator_base0@std@@QEAAXPEBX@Z
	?_Alloc_proxy@_Container_base0@std@@QEAAXAEBU_Fake_allocator@2@@Z
	?_Alloc_sentinel_and_proxy@?$_Tree@V?$_Tmap_traits@PEAXPEBVEasy@curlpp@@U?$less@PEAX@std@@V?$allocator@U?$pair@QEAXPEBVEasy@curlpp@@@std@@@4@$0A@@std@@@std@@IEAAXXZ
	?_Alloc_sentinel_and_proxy@?$_Tree@V?$_Tmap_traits@W4CURLoption@@PEAVOptionBase@curlpp@@U?$less@W4CURLoption@@@std@@V?$allocator@U?$pair@$$CBW4CURLoption@@PEAVOptionBase@curlpp@@@std@@@5@$0A@@std@@@std@@IEAAXXZ
	?_Alloc_sentinel_and_proxy@?$list@U?$pair@PEBVEasy@curlpp@@UInfo@Multi@2@@std@@V?$allocator@U?$pair@PEBVEasy@curlpp@@UInfo@Multi@2@@std@@@2@@std@@AEAAXXZ
	?_Alloc_sentinel_and_proxy@?$list@V?$basic_string@DU?$char_traits@D@std@@V?$allocator@D@2@@std@@V?$allocator@V?$basic_string@DU?$char_traits@D@std@@V?$allocator@D@2@@std@@@2@@std@@AEAAXXZ
	?_Alloc_sentinel_and_proxy@?$list@V?$clone_ptr@VFormPart@curlpp@@@utilspp@@V?$allocator@V?$clone_ptr@VFormPart@curlpp@@@utilspp@@@std@@@std@@AEAAXXZ
	?_Allocate@?$_Alloc_construct_ptr@V?$allocator@U?$_List_node@U?$pair@PEBVEasy@curlpp@@UInfo@Multi@2@@std@@PEAX@std@@@std@@@std@@QEAAXXZ
	?_Allocate@?$_Alloc_construct_ptr@V?$allocator@U?$_List_node@V?$basic_string@DU?$char_traits@D@std@@V?$allocator@D@2@@std@@PEAX@std@@@std@@@std@@QEAAXXZ
	?_Allocate@?$_Alloc_construct_ptr@V?$allocator@U?$_List_node@V?$clone_ptr@VFormPart@curlpp@@@utilspp@@PEAX@std@@@std@@@std@@QEAAXXZ
	?_Allocate@?$_Alloc_construct_ptr@V?$allocator@U?$_Tree_node@U?$pair@$$CBW4CURLoption@@PEAVOptionBase@curlpp@@@std@@PEAX@std@@@std@@@std@@QEAAXXZ
	?_Allocate@?$_Alloc_construct_ptr@V?$allocator@U?$_Tree_node@U?$pair@QEAXPEBVEasy@curlpp@@@std@@PEAX@std@@@std@@@std@@QEAAXXZ
	?_Allocate@_Default_allocate_traits@std@@SAPEAX_K@Z
	?_Calculate_growth@?$basic_string@DU?$char_traits@D@std@@V?$allocator@D@2@@std@@AEBA_K_K@Z
	?_Calculate_growth@?$basic_string@DU?$char_traits@D@std@@V?$allocator@D@2@@std@@CA_K_K00@Z
	?_Check_grow_by_1@?$_Tree@V?$_Tmap_traits@PEAXPEBVEasy@curlpp@@U?$less@PEAX@std@@V?$allocator@U?$pair@QEAXPEBVEasy@curlpp@@@std@@@4@$0A@@std@@@std@@IEAAXXZ
	?_Check_grow_by_1@?$_Tree@V?$_Tmap_traits@W4CURLoption@@PEAVOptionBase@curlpp@@U?$less@W4CURLoption@@@std@@V?$allocator@U?$pair@$$CBW4CURLoption@@PEAVOptionBase@curlpp@@@std@@@5@$0A@@std@@@std@@IEAAXXZ
	?_Construct_empty@?$basic_string@DU?$char_traits@D@std@@V?$allocator@D@2@@std@@AEAAXXZ
	?_Deallocate_for_capacity@?$basic_string@DU?$char_traits@D@std@@V?$allocator@D@2@@std@@CAXAEAV?$allocator@D@2@QEAD_K@Z
	?_Empty@?$_Func_class@HNNNN@std@@IEBA_NXZ
	?_Empty@?$_Func_class@HW4curl_infotype@@PEAD_K@std@@IEBA_NXZ
	?_Empty@?$_Func_class@W4CURLcode@@PEAX@std@@IEBA_NXZ
	?_Empty@?$_Func_class@_KPEAD_K_K@std@@IEBA_NXZ
	?_Erase@?$_Tree@V?$_Tmap_traits@PEAXPEBVEasy@curlpp@@U?$less@PEAX@std@@V?$allocator@U?$pair@QEAXPEBVEasy@curlpp@@@std@@@4@$0A@@std@@@std@@AEAA_KU?$pair@PEAU?$_Tree_node@U?$pair@QEAXPEBVEasy@curlpp@@@std@@PEAX@std@@PEAU12@@2@@Z
	?_Erase_unchecked@?$_Tree@V?$_Tmap_traits@PEAXPEBVEasy@curlpp@@U?$less@PEAX@std@@V?$allocator@U?$pair@QEAXPEBVEasy@curlpp@@@std@@@4@$0A@@std@@@std@@AEAAPEAU?$_Tree_node@U?$pair@QEAXPEBVEasy@curlpp@@@std@@PEAX@2@V?$_Tree_unchecked_const_iterator@V?$_Tree_val@U?$_Tree_simple_types@U?$pair@QEAXPEBVEasy@curlpp@@@std@@@std@@@std@@U_Iterator_base0@2@@2@0@Z
	?_Erase_unchecked@?$_Tree@V?$_Tmap_traits@PEAXPEBVEasy@curlpp@@U?$less@PEAX@std@@V?$allocator@U?$pair@QEAXPEBVEasy@curlpp@@@std@@@4@$0A@@std@@@std@@AEAAPEAU?$_Tree_node@U?$pair@QEAXPEBVEasy@curlpp@@@std@@PEAX@2@V?$_Tree_unchecked_const_iterator@V?$_Tree_val@U?$_Tree_simple_types@U?$pair@QEAXPEBVEasy@curlpp@@@std@@@std@@@std@@U_Iterator_base0@2@@2@@Z
	?_Erase_unchecked@?$_Tree@V?$_Tmap_traits@W4CURLoption@@PEAVOptionBase@curlpp@@U?$less@W4CURLoption@@@std@@V?$allocator@U?$pair@$$CBW4CURLoption@@PEAVOptionBase@curlpp@@@std@@@5@$0A@@std@@@std@@AEAAPEAU?$_Tree_node@U?$pair@$$CBW4CURLoption@@PEAVOptionBase@curlpp@@@std@@PEAX@2@V?$_Tree_unchecked_const_iterator@V?$_Tree_val@U?$_Tree_simple_types@U?$pair@$$CBW4CURLoption@@PEAVOptionBase@curlpp@@@std@@@std@@@std@@U_Iterator_base0@2@@2@@Z
	?_Extract@?$_In_place_key_extract_map@PEAXU?$pair@PEAXPEBVEasy@curlpp@@@std@@@std@@SAAEBQEAXAEBU?$pair@PEAXPEBVEasy@curlpp@@@2@@Z
	?_Extract@?$_In_place_key_extract_map@W4CURLoption@@U?$pair@W4CURLoption@@PEAVOptionBase@curlpp@@@std@@@std@@SAAEBW4CURLoption@@AEBU?$pair@W4CURLoption@@PEAVOptionBase@curlpp@@@2@@Z
	?_Extract@?$_Tree_val@U?$_Tree_simple_types@U?$pair@$$CBW4CURLoption@@PEAVOptionBase@curlpp@@@std@@@std@@@std@@QEAAPEAU?$_Tree_node@U?$pair@$$CBW4CURLoption@@PEAVOptionBase@curlpp@@@std@@PEAX@2@V?$_Tree_unchecked_const_iterator@V?$_Tree_val@U?$_Tree_simple_types@U?$pair@$$CBW4CURLoption@@PEAVOptionBase@curlpp@@@std@@@std@@@std@@U_Iterator_base0@2@@2@@Z
	?_Extract@?$_Tree_val@U?$_Tree_simple_types@U?$pair@QEAXPEBVEasy@curlpp@@@std@@@std@@@std@@QEAAPEAU?$_Tree_node@U?$pair@QEAXPEBVEasy@curlpp@@@std@@PEAX@2@V?$_Tree_unchecked_const_iterator@V?$_Tree_val@U?$_Tree_simple_types@U?$pair@QEAXPEBVEasy@curlpp@@@std@@@std@@@std@@U_Iterator_base0@2@@2@@Z
	?_Get_first@?$_Compressed_pair@U?$default_delete@VCallbackExceptionBase@curlpp@@@std@@PEAVCallbackExceptionBase@curlpp@@$00@std@@QEAAAEAU?$default_delete@VCallbackExceptionBase@curlpp@@@2@XZ
	?_Get_first@?$_Compressed_pair@U?$default_delete@VCurlHandle@internal@curlpp@@@std@@PEAVCurlHandle@internal@curlpp@@$00@std@@QEAAAEAU?$default_delete@VCurlHandle@internal@curlpp@@@2@XZ
	?_Get_first@?$_Compressed_pair@U?$default_delete@VOptionBase@curlpp@@@std@@PEAVOptionBase@curlpp@@$00@std@@QEAAAEAU?$default_delete@VOptionBase@curlpp@@@2@XZ
	?_Get_first@?$_Compressed_pair@U?$less@PEAX@std@@V?$_Compressed_pair@V?$allocator@U?$_Tree_node@U?$pair@QEAXPEBVEasy@curlpp@@@std@@PEAX@std@@@std@@V?$_Tree_val@U?$_Tree_simple_types@U?$pair@QEAXPEBVEasy@curlpp@@@std@@@std@@@2@$00@2@$00@std@@QEBAAEBU?$less@PEAX@2@XZ
	?_Get_first@?$_Compressed_pair@U?$less@W4CURLoption@@@std@@V?$_Compressed_pair@V?$allocator@U?$_Tree_node@U?$pair@$$CBW4CURLoption@@PEAVOptionBase@curlpp@@@std@@PEAX@std@@@std@@V?$_Tree_val@U?$_Tree_simple_types@U?$pair@$$CBW4CURLoption@@PEAVOptionBase@curlpp@@@std@@@std@@@2@$00@2@$00@std@@QEBAAEBU?$less@W4CURLoption@@@2@XZ
	?_Get_first@?$_Compressed_pair@V?$allocator@D@std@@V?$_String_val@U?$_Simple_types@D@std@@@2@$00@std@@QEAAAEAV?$allocator@D@2@XZ
	?_Get_first@?$_Compressed_pair@V?$allocator@D@std@@V?$_String_val@U?$_Simple_types@D@std@@@2@$00@std@@QEBAAEBV?$allocator@D@2@XZ
	?_Get_first@?$_Compressed_pair@V?$allocator@U?$_List_node@U?$pair@PEBVEasy@curlpp@@UInfo@Multi@2@@std@@PEAX@std@@@std@@V?$_List_val@U?$_List_simple_types@U?$pair@PEBVEasy@curlpp@@UInfo@Multi@2@@std@@@std@@@2@$00@std@@QEAAAEAV?$allocator@U?$_List_node@U?$pair@PEBVEasy@curlpp@@UInfo@Multi@2@@std@@PEAX@std@@@2@XZ
	?_Get_first@?$_Compressed_pair@V?$allocator@U?$_List_node@U?$pair@PEBVEasy@curlpp@@UInfo@Multi@2@@std@@PEAX@std@@@std@@V?$_List_val@U?$_List_simple_types@U?$pair@PEBVEasy@curlpp@@UInfo@Multi@2@@std@@@std@@@2@$00@std@@QEBAAEBV?$allocator@U?$_List_node@U?$pair@PEBVEasy@curlpp@@UInfo@Multi@2@@std@@PEAX@std@@@2@XZ
	?_Get_first@?$_Compressed_pair@V?$allocator@U?$_List_node@V?$basic_string@DU?$char_traits@D@std@@V?$allocator@D@2@@std@@PEAX@std@@@std@@V?$_List_val@U?$_List_simple_types@V?$basic_string@DU?$char_traits@D@std@@V?$allocator@D@2@@std@@@std@@@2@$00@std@@QEAAAEAV?$allocator@U?$_List_node@V?$basic_string@DU?$char_traits@D@std@@V?$allocator@D@2@@std@@PEAX@std@@@2@XZ
	?_Get_first@?$_Compressed_pair@V?$allocator@U?$_List_node@V?$basic_string@DU?$char_traits@D@std@@V?$allocator@D@2@@std@@PEAX@std@@@std@@V?$_List_val@U?$_List_simple_types@V?$basic_string@DU?$char_traits@D@std@@V?$allocator@D@2@@std@@@std@@@2@$00@std@@QEBAAEBV?$allocator@U?$_List_node@V?$basic_string@DU?$char_traits@D@std@@V?$allocator@D@2@@std@@PEAX@std@@@2@XZ
	?_Get_first@?$_Compressed_pair@V?$allocator@U?$_List_node@V?$clone_ptr@VFormPart@curlpp@@@utilspp@@PEAX@std@@@std@@V?$_List_val@U?$_List_simple_types@V?$clone_ptr@VFormPart@curlpp@@@utilspp@@@std@@@2@$00@std@@QEAAAEAV?$allocator@U?$_List_node@V?$clone_ptr@VFormPart@curlpp@@@utilspp@@PEAX@std@@@2@XZ
	?_Get_first@?$_Compressed_pair@V?$allocator@U?$_List_node@V?$clone_ptr@VFormPart@curlpp@@@utilspp@@PEAX@std@@@std@@V?$_List_val@U?$_List_simple_types@V?$clone_ptr@VFormPart@curlpp@@@utilspp@@@std@@@2@$00@std@@QEBAAEBV?$allocator@U?$_List_node@V?$clone_ptr@VFormPart@curlpp@@@utilspp@@PEAX@std@@@2@XZ
	?_Get_first@?$_Compressed_pair@V?$allocator@U?$_Tree_node@U?$pair@$$CBW4CURLoption@@PEAVOptionBase@curlpp@@@std@@PEAX@std@@@std@@V?$_Tree_val@U?$_Tree_simple_types@U?$pair@$$CBW4CURLoption@@PEAVOptionBase@curlpp@@@std@@@std@@@2@$00@std@@QEAAAEAV?$allocator@U?$_Tree_node@U?$pair@$$CBW4CURLoption@@PEAVOptionBase@curlpp@@@std@@PEAX@std@@@2@XZ
	?_Get_first@?$_Compressed_pair@V?$allocator@U?$_Tree_node@U?$pair@$$CBW4CURLoption@@PEAVOptionBase@curlpp@@@std@@PEAX@std@@@std@@V?$_Tree_val@U?$_Tree_simple_types@U?$pair@$$CBW4CURLoption@@PEAVOptionBase@curlpp@@@std@@@std@@@2@$00@std@@QEBAAEBV?$allocator@U?$_Tree_node@U?$pair@$$CBW4CURLoption@@PEAVOptionBase@curlpp@@@std@@PEAX@std@@@2@XZ
	?_Get_first@?$_Compressed_pair@V?$allocator@U?$_Tree_node@U?$pair@QEAXPEBVEasy@curlpp@@@std@@PEAX@std@@@std@@V?$_Tree_val@U?$_Tree_simple_types@U?$pair@QEAXPEBVEasy@curlpp@@@std@@@std@@@2@$00@std@@QEAAAEAV?$allocator@U?$_Tree_node@U?$pair@QEAXPEBVEasy@curlpp@@@std@@PEAX@std@@@2@XZ
	?_Get_first@?$_Compressed_pair@V?$allocator@U?$_Tree_node@U?$pair@QEAXPEBVEasy@curlpp@@@std@@PEAX@std@@@std@@V?$_Tree_val@U?$_Tree_simple_types@U?$pair@QEAXPEBVEasy@curlpp@@@std@@@std@@@2@$00@std@@QEBAAEBV?$allocator@U?$_Tree_node@U?$pair@QEAXPEBVEasy@curlpp@@@std@@PEAX@std@@@2@XZ
	?_Get_scary@?$_Tree@V?$_Tmap_traits@PEAXPEBVEasy@curlpp@@U?$less@PEAX@std@@V?$allocator@U?$pair@QEAXPEBVEasy@curlpp@@@std@@@4@$0A@@std@@@std@@IEAAPEAV?$_Tree_val@U?$_Tree_simple_types@U?$pair@QEAXPEBVEasy@curlpp@@@std@@@std@@@2@XZ
	?_Get_scary@?$_Tree@V?$_Tmap_traits@PEAXPEBVEasy@curlpp@@U?$less@PEAX@std@@V?$allocator@U?$pair@QEAXPEBVEasy@curlpp@@@std@@@4@$0A@@std@@@std@@IEBAPEBV?$_Tree_val@U?$_Tree_simple_types@U?$pair@QEAXPEBVEasy@curlpp@@@std@@@std@@@2@XZ
	?_Get_scary@?$_Tree@V?$_Tmap_traits@W4CURLoption@@PEAVOptionBase@curlpp@@U?$less@W4CURLoption@@@std@@V?$allocator@U?$pair@$$CBW4CURLoption@@PEAVOptionBase@curlpp@@@std@@@5@$0A@@std@@@std@@IEAAPEAV?$_Tree_val@U?$_Tree_simple_types@U?$pair@$$CBW4CURLoption@@PEAVOptionBase@curlpp@@@std@@@std@@@2@XZ
	?_Get_scary@?$_Tree@V?$_Tmap_traits@W4CURLoption@@PEAVOptionBase@curlpp@@U?$less@W4CURLoption@@@std@@V?$allocator@U?$pair@$$CBW4CURLoption@@PEAVOptionBase@curlpp@@@std@@@5@$0A@@std@@@std@@IEBAPEBV?$_Tree_val@U?$_Tree_simple_types@U?$pair@$$CBW4CURLoption@@PEAVOptionBase@curlpp@@@std@@@std@@@2@XZ
	?_Getal@?$_Tree@V?$_Tmap_traits@PEAXPEBVEasy@curlpp@@U?$less@PEAX@std@@V?$allocator@U?$pair@QEAXPEBVEasy@curlpp@@@std@@@4@$0A@@std@@@std@@IEAAAEAV?$allocator@U?$_Tree_node@U?$pair@QEAXPEBVEasy@curlpp@@@std@@PEAX@std@@@2@XZ
	?_Getal@?$_Tree@V?$_Tmap_traits@PEAXPEBVEasy@curlpp@@U?$less@PEAX@std@@V?$allocator@U?$pair@QEAXPEBVEasy@curlpp@@@std@@@4@$0A@@std@@@std@@IEBAAEBV?$allocator@U?$_Tree_node@U?$pair@QEAXPEBVEasy@curlpp@@@std@@PEAX@std@@@2@XZ
	?_Getal@?$_Tree@V?$_Tmap_traits@W4CURLoption@@PEAVOptionBase@curlpp@@U?$less@W4CURLoption@@@std@@V?$allocator@U?$pair@$$CBW4CURLoption@@PEAVOptionBase@curlpp@@@std@@@5@$0A@@std@@@std@@IEAAAEAV?$allocator@U?$_Tree_node@U?$pair@$$CBW4CURLoption@@PEAVOptionBase@curlpp@@@std@@PEAX@std@@@2@XZ
	?_Getal@?$_Tree@V?$_Tmap_traits@W4CURLoption@@PEAVOptionBase@curlpp@@U?$less@W4CURLoption@@@std@@V?$allocator@U?$pair@$$CBW4CURLoption@@PEAVOptionBase@curlpp@@@std@@@5@$0A@@std@@@std@@IEBAAEBV?$allocator@U?$_Tree_node@U?$pair@$$CBW4CURLoption@@PEAVOptionBase@curlpp@@@std@@PEAX@std@@@2@XZ
	?_Getal@?$basic_string@DU?$char_traits@D@std@@V?$allocator@D@2@@std@@AEAAAEAV?$allocator@D@2@XZ
	?_Getal@?$basic_string@DU?$char_traits@D@std@@V?$allocator@D@2@@std@@AEBAAEBV?$allocator@D@2@XZ
	?_Getal@?$list@U?$pair@PEBVEasy@curlpp@@UInfo@Multi@2@@std@@V?$allocator@U?$pair@PEBVEasy@curlpp@@UInfo@Multi@2@@std@@@2@@std@@AEAAAEAV?$allocator@U?$_List_node@U?$pair@PEBVEasy@curlpp@@UInfo@Multi@2@@std@@PEAX@std@@@2@XZ
	?_Getal@?$list@U?$pair@PEBVEasy@curlpp@@UInfo@Multi@2@@std@@V?$allocator@U?$pair@PEBVEasy@curlpp@@UInfo@Multi@2@@std@@@2@@std@@AEBAAEBV?$allocator@U?$_List_node@U?$pair@PEBVEasy@curlpp@@UInfo@Multi@2@@std@@PEAX@std@@@2@XZ
	?_Getal@?$list@V?$basic_string@DU?$char_traits@D@std@@V?$allocator@D@2@@std@@V?$allocator@V?$basic_string@DU?$char_traits@D@std@@V?$allocator@D@2@@std@@@2@@std@@AEAAAEAV?$allocator@U?$_List_node@V?$basic_string@DU?$char_traits@D@std@@V?$allocator@D@2@@std@@PEAX@std@@@2@XZ
	?_Getal@?$list@V?$basic_string@DU?$char_traits@D@std@@V?$allocator@D@2@@std@@V?$allocator@V?$basic_string@DU?$char_traits@D@std@@V?$allocator@D@2@@std@@@2@@std@@AEBAAEBV?$allocator@U?$_List_node@V?$basic_string@DU?$char_traits@D@std@@V?$allocator@D@2@@std@@PEAX@std@@@2@XZ
	?_Getal@?$list@V?$clone_ptr@VFormPart@curlpp@@@utilspp@@V?$allocator@V?$clone_ptr@VFormPart@curlpp@@@utilspp@@@std@@@std@@AEAAAEAV?$allocator@U?$_List_node@V?$clone_ptr@VFormPart@curlpp@@@utilspp@@PEAX@std@@@2@XZ
	?_Getal@?$list@V?$clone_ptr@VFormPart@curlpp@@@utilspp@@V?$allocator@V?$clone_ptr@VFormPart@curlpp@@@utilspp@@@std@@@std@@AEBAAEBV?$allocator@U?$_List_node@V?$clone_ptr@VFormPart@curlpp@@@utilspp@@PEAX@std@@@2@XZ
	?_Getcomp@?$_Tree@V?$_Tmap_traits@PEAXPEBVEasy@curlpp@@U?$less@PEAX@std@@V?$allocator@U?$pair@QEAXPEBVEasy@curlpp@@@std@@@4@$0A@@std@@@std@@IEBAAEBU?$less@PEAX@2@XZ
	?_Getcomp@?$_Tree@V?$_Tmap_traits@W4CURLoption@@PEAVOptionBase@curlpp@@U?$less@W4CURLoption@@@std@@V?$allocator@U?$pair@$$CBW4CURLoption@@PEAVOptionBase@curlpp@@@std@@@5@$0A@@std@@@std@@IEBAAEBU?$less@W4CURLoption@@@2@XZ
	?_Getcont@_Iterator_base0@std@@QEBAPEBU_Container_base0@2@XZ
	?_Getimpl@?$_Func_class@HNNNN@std@@AEBAPEAV?$_Func_base@HNNNN@2@XZ
	?_Getimpl@?$_Func_class@HW4curl_infotype@@PEAD_K@std@@AEBAPEAV?$_Func_base@HW4curl_infotype@@PEAD_K@2@XZ
	?_Getimpl@?$_Func_class@W4CURLcode@@PEAX@std@@AEBAPEAV?$_Func_base@W4CURLcode@@PEAX@2@XZ
	?_Getimpl@?$_Func_class@_KPEAD_K_K@std@@AEBAPEAV?$_Func_base@_KPEAD_K_K@2@XZ
	?_Insert_node@?$_Tree_val@U?$_Tree_simple_types@U?$pair@$$CBW4CURLoption@@PEAVOptionBase@curlpp@@@std@@@std@@@std@@QEAAPEAU?$_Tree_node@U?$pair@$$CBW4CURLoption@@PEAVOptionBase@curlpp@@@std@@PEAX@2@U?$_Tree_id@PEAU?$_Tree_node@U?$pair@$$CBW4CURLoption@@PEAVOptionBase@curlpp@@@std@@PEAX@std@@@2@QEAU32@@Z
	?_Insert_node@?$_Tree_val@U?$_Tree_simple_types@U?$pair@QEAXPEBVEasy@curlpp@@@std@@@std@@@std@@QEAAPEAU?$_Tree_node@U?$pair@QEAXPEBVEasy@curlpp@@@std@@PEAX@2@U?$_Tree_id@PEAU?$_Tree_node@U?$pair@QEAXPEBVEasy@curlpp@@@std@@PEAX@std@@@2@QEAU32@@Z
	?_Large_mode_engaged@?$_String_val@U?$_Simple_types@D@std@@@std@@QEBA_NXZ
	?_Local@?$_Func_class@HNNNN@std@@AEBA_NXZ
	?_Local@?$_Func_class@HW4curl_infotype@@PEAD_K@std@@AEBA_NXZ
	?_Local@?$_Func_class@W4CURLcode@@PEAX@std@@AEBA_NXZ
	?_Local@?$_Func_class@_KPEAD_K_K@std@@AEBA_NXZ
	?_Lrotate@?$_Tree_val@U?$_Tree_simple_types@U?$pair@$$CBW4CURLoption@@PEAVOptionBase@curlpp@@@std@@@std@@@std@@QEAAXPEAU?$_Tree_node@U?$pair@$$CBW4CURLoption@@PEAVOptionBase@curlpp@@@std@@PEAX@2@@Z
	?_Lrotate@?$_Tree_val@U?$_Tree_simple_types@U?$pair@QEAXPEBVEasy@curlpp@@@std@@@std@@@std@@QEAAXPEAU?$_Tree_node@U?$pair@QEAXPEBVEasy@curlpp@@@std@@PEAX@2@@Z
	?_Max@?$_Tree_val@U?$_Tree_simple_types@U?$pair@$$CBW4CURLoption@@PEAVOptionBase@curlpp@@@std@@@std@@@std@@SAPEAU?$_Tree_node@U?$pair@$$CBW4CURLoption@@PEAVOptionBase@curlpp@@@std@@PEAX@2@PEAU32@@Z
	?_Max@?$_Tree_val@U?$_Tree_simple_types@U?$pair@QEAXPEBVEasy@curlpp@@@std@@@std@@@std@@SAPEAU?$_Tree_node@U?$pair@QEAXPEBVEasy@curlpp@@@std@@PEAX@2@PEAU32@@Z
	?_Min@?$_Tree_val@U?$_Tree_simple_types@U?$pair@$$CBW4CURLoption@@PEAVOptionBase@curlpp@@@std@@@std@@@std@@SAPEAU?$_Tree_node@U?$pair@$$CBW4CURLoption@@PEAVOptionBase@curlpp@@@std@@PEAX@2@PEAU32@@Z
	?_Min@?$_Tree_val@U?$_Tree_simple_types@U?$pair@QEAXPEBVEasy@curlpp@@@std@@@std@@@std@@SAPEAU?$_Tree_node@U?$pair@QEAXPEBVEasy@curlpp@@@std@@PEAX@2@PEAU32@@Z
	?_Myptr@?$_String_val@U?$_Simple_types@D@std@@@std@@QEAAPEADXZ
	?_Myptr@?$_String_val@U?$_Simple_types@D@std@@@std@@QEBAPEBDXZ
	?_Orphan_all@_Container_base0@std@@QEAAXXZ
	?_Orphan_non_end@?$_List_val@U?$_List_simple_types@V?$basic_string@DU?$char_traits@D@std@@V?$allocator@D@2@@std@@@std@@@std@@QEAAXXZ
	?_Orphan_non_end@?$_List_val@U?$_List_simple_types@V?$clone_ptr@VFormPart@curlpp@@@utilspp@@@std@@@std@@QEAAXXZ
	?_Orphan_ptr@?$_Tree_val@U?$_Tree_simple_types@U?$pair@$$CBW4CURLoption@@PEAVOptionBase@curlpp@@@std@@@std@@@std@@QEAAXQEAU?$_Tree_node@U?$pair@$$CBW4CURLoption@@PEAVOptionBase@curlpp@@@std@@PEAX@2@@Z
	?_Orphan_ptr@?$_Tree_val@U?$_Tree_simple_types@U?$pair@QEAXPEBVEasy@curlpp@@@std@@@std@@@std@@QEAAXQEAU?$_Tree_node@U?$pair@QEAXPEBVEasy@curlpp@@@std@@PEAX@2@@Z
	?_Release@?$_Alloc_construct_ptr@V?$allocator@U?$_List_node@V?$basic_string@DU?$char_traits@D@std@@V?$allocator@D@2@@std@@PEAX@std@@@std@@@std@@QEAAPEAU?$_List_node@V?$basic_string@DU?$char_traits@D@std@@V?$allocator@D@2@@std@@PEAX@2@XZ
	?_Release@?$_Alloc_construct_ptr@V?$allocator@U?$_Tree_node@U?$pair@$$CBW4CURLoption@@PEAVOptionBase@curlpp@@@std@@PEAX@std@@@std@@@std@@QEAAPEAU?$_Tree_node@U?$pair@$$CBW4CURLoption@@PEAVOptionBase@curlpp@@@std@@PEAX@2@XZ
	?_Release@?$_Alloc_construct_ptr@V?$allocator@U?$_Tree_node@U?$pair@QEAXPEBVEasy@curlpp@@@std@@PEAX@std@@@std@@@std@@QEAAPEAU?$_Tree_node@U?$pair@QEAXPEBVEasy@curlpp@@@std@@PEAX@2@XZ
	?_Release@_Fake_proxy_ptr_impl@std@@QEAAXXZ
	?_Reset_copy@?$_Func_class@HNNNN@std@@IEAAXAEBV12@@Z
	?_Reset_copy@?$_Func_class@HW4curl_infotype@@PEAD_K@std@@IEAAXAEBV12@@Z
	?_Reset_copy@?$_Func_class@W4CURLcode@@PEAX@std@@IEAAXAEBV12@@Z
	?_Reset_copy@?$_Func_class@_KPEAD_K_K@std@@IEAAXAEBV12@@Z
	?_Reset_move@?$_Func_class@HNNNN@std@@IEAAX$$QEAV12@@Z
	?_Reset_move@?$_Func_class@HW4curl_infotype@@PEAD_K@std@@IEAAX$$QEAV12@@Z
	?_Reset_move@?$_Func_class@W4CURLcode@@PEAX@std@@IEAAX$$QEAV12@@Z
	?_Reset_move@?$_Func_class@_KPEAD_K_K@std@@IEAAX$$QEAV12@@Z
	?_Rrotate@?$_Tree_val@U?$_Tree_simple_types@U?$pair@$$CBW4CURLoption@@PEAVOptionBase@curlpp@@@std@@@std@@@std@@QEAAXPEAU?$_Tree_node@U?$pair@$$CBW4CURLoption@@PEAVOptionBase@curlpp@@@std@@PEAX@2@@Z
	?_Rrotate@?$_Tree_val@U?$_Tree_simple_types@U?$pair@QEAXPEBVEasy@curlpp@@@std@@@std@@@std@@QEAAXPEAU?$_Tree_node@U?$pair@QEAXPEBVEasy@curlpp@@@std@@PEAX@2@@Z
	?_Set@?$_Func_class@HNNNN@std@@AEAAXPEAV?$_Func_base@HNNNN@2@@Z
	?_Set@?$_Func_class@HW4curl_infotype@@PEAD_K@std@@AEAAXPEAV?$_Func_base@HW4curl_infotype@@PEAD_K@2@@Z
	?_Set@?$_Func_class@W4CURLcode@@PEAX@std@@AEAAXPEAV?$_Func_base@W4CURLcode@@PEAX@2@@Z
	?_Set@?$_Func_class@_KPEAD_K_K@std@@AEAAXPEAV?$_Func_base@_KPEAD_K_K@2@@Z
	?_Swap@?$_Func_class@HNNNN@std@@IEAAXAEAV12@@Z
	?_Swap@?$_Func_class@HW4curl_infotype@@PEAD_K@std@@IEAAXAEAV12@@Z
	?_Swap@?$_Func_class@W4CURLcode@@PEAX@std@@IEAAXAEAV12@@Z
	?_Swap@?$_Func_class@_KPEAD_K_K@std@@IEAAXAEAV12@@Z
	?_Swap_proxy_and_iterators@?$basic_string@DU?$char_traits@D@std@@V?$allocator@D@2@@std@@AEAAXAEAV12@@Z
	?_Swap_proxy_and_iterators@_Container_base0@std@@QEAAXAEAU12@@Z
	?_Swap_val@?$list@U?$pair@PEBVEasy@curlpp@@UInfo@Multi@2@@std@@V?$allocator@U?$pair@PEBVEasy@curlpp@@UInfo@Multi@2@@std@@@2@@std@@AEAAXAEAV12@@Z
	?_Swap_val@?$list@V?$basic_string@DU?$char_traits@D@std@@V?$allocator@D@2@@std@@V?$allocator@V?$basic_string@DU?$char_traits@D@std@@V?$allocator@D@2@@std@@@2@@std@@AEAAXAEAV12@@Z
	?_Swap_val@?$list@V?$clone_ptr@VFormPart@curlpp@@@utilspp@@V?$allocator@V?$clone_ptr@VFormPart@curlpp@@@utilspp@@@std@@@std@@AEAAXAEAV12@@Z
	?_Switch_to_buf@_Bxty@?$_String_val@U?$_Simple_types@D@std@@@std@@QEAAXXZ
	?_Take_contents@?$basic_string@DU?$char_traits@D@std@@V?$allocator@D@2@@std@@AEAAXAEAV12@@Z
	?_Throw_bad_array_new_length@std@@YAXXZ
	?_Throw_tree_length_error@std@@YAXXZ
	?_Tidy@?$_Func_class@HNNNN@std@@IEAAXXZ
	?_Tidy@?$_Func_class@HW4curl_infotype@@PEAD_K@std@@IEAAXXZ
	?_Tidy@?$_Func_class@W4CURLcode@@PEAX@std@@IEAAXXZ
	?_Tidy@?$_Func_class@_KPEAD_K_K@std@@IEAAXXZ
	?_Tidy@?$list@U?$pair@PEBVEasy@curlpp@@UInfo@Multi@2@@std@@V?$allocator@U?$pair@PEBVEasy@curlpp@@UInfo@Multi@2@@std@@@2@@std@@AEAAXXZ
	?_Tidy@?$list@V?$basic_string@DU?$char_traits@D@std@@V?$allocator@D@2@@std@@V?$allocator@V?$basic_string@DU?$char_traits@D@std@@V?$allocator@D@2@@std@@@2@@std@@AEAAXXZ
	?_Tidy@?$list@V?$clone_ptr@VFormPart@curlpp@@@utilspp@@V?$allocator@V?$clone_ptr@VFormPart@curlpp@@@utilspp@@@std@@@std@@AEAAXXZ
	?_Tidy_deallocate@?$basic_string@DU?$char_traits@D@std@@V?$allocator@D@2@@std@@AEAAXXZ
	?_Transfer_before@?$_List_node_emplace_op2@V?$allocator@U?$_List_node@U?$pair@PEBVEasy@curlpp@@UInfo@Multi@2@@std@@PEAX@std@@@std@@@std@@QEAAPEAU?$_List_node@U?$pair@PEBVEasy@curlpp@@UInfo@Multi@2@@std@@PEAX@2@QEAU32@@Z
	?_Transfer_before@?$_List_node_emplace_op2@V?$allocator@U?$_List_node@V?$basic_string@DU?$char_traits@D@std@@V?$allocator@D@2@@std@@PEAX@std@@@std@@@std@@QEAAPEAU?$_List_node@V?$basic_string@DU?$char_traits@D@std@@V?$allocator@D@2@@std@@PEAX@2@QEAU32@@Z
	?_Transfer_before@?$_List_node_emplace_op2@V?$allocator@U?$_List_node@V?$clone_ptr@VFormPart@curlpp@@@utilspp@@PEAX@std@@@std@@@std@@QEAAPEAU?$_List_node@V?$clone_ptr@VFormPart@curlpp@@@utilspp@@PEAX@2@QEAU32@@Z
	?_Unchecked_begin@?$_Tree@V?$_Tmap_traits@PEAXPEBVEasy@curlpp@@U?$less@PEAX@std@@V?$allocator@U?$pair@QEAXPEBVEasy@curlpp@@@std@@@4@$0A@@std@@@std@@QEAA?AV?$_Tree_unchecked_iterator@V?$_Tree_val@U?$_Tree_simple_types@U?$pair@QEAXPEBVEasy@curlpp@@@std@@@std@@@std@@@2@XZ
	?_Unchecked_begin@?$list@V?$basic_string@DU?$char_traits@D@std@@V?$allocator@D@2@@std@@V?$allocator@V?$basic_string@DU?$char_traits@D@std@@V?$allocator@D@2@@std@@@2@@std@@QEBA?AV?$_List_unchecked_const_iterator@V?$_List_val@U?$_List_simple_types@V?$basic_string@DU?$char_traits@D@std@@V?$allocator@D@2@@std@@@std@@@std@@U_Iterator_base0@2@@2@XZ
	?_Unchecked_end@?$list@V?$basic_string@DU?$char_traits@D@std@@V?$allocator@D@2@@std@@V?$allocator@V?$basic_string@DU?$char_traits@D@std@@V?$allocator@D@2@@std@@@2@@std@@QEBA?AV?$_List_unchecked_const_iterator@V?$_List_val@U?$_List_simple_types@V?$basic_string@DU?$char_traits@D@std@@V?$allocator@D@2@@std@@@std@@@std@@U_Iterator_base0@2@@2@XZ
	?_Unchecked_erase@?$list@V?$basic_string@DU?$char_traits@D@std@@V?$allocator@D@2@@std@@V?$allocator@V?$basic_string@DU?$char_traits@D@std@@V?$allocator@D@2@@std@@@2@@std@@AEAAPEAU?$_List_node@V?$basic_string@DU?$char_traits@D@std@@V?$allocator@D@2@@std@@PEAX@2@PEAU32@QEAU32@@Z
	?_Unwrapped@?$_Tree_iterator@V?$_Tree_val@U?$_Tree_simple_types@U?$pair@$$CBW4CURLoption@@PEAVOptionBase@curlpp@@@std@@@std@@@std@@@std@@QEBA?AV?$_Tree_unchecked_iterator@V?$_Tree_val@U?$_Tree_simple_types@U?$pair@$$CBW4CURLoption@@PEAVOptionBase@curlpp@@@std@@@std@@@std@@@2@XZ
	?_Unwrapped@?$_Tree_iterator@V?$_Tree_val@U?$_Tree_simple_types@U?$pair@QEAXPEBVEasy@curlpp@@@std@@@std@@@std@@@std@@QEBA?AV?$_Tree_unchecked_iterator@V?$_Tree_val@U?$_Tree_simple_types@U?$pair@QEAXPEBVEasy@curlpp@@@std@@@std@@@std@@@2@XZ
	?_Xlen_string@std@@YAXXZ
	?add@Content@FormParts@curlpp@@EEAAXPEAPEAUcurl_httppost@@0@Z
	?add@File@FormParts@curlpp@@EEAAXPEAPEAUcurl_httppost@@0@Z
	?add@Multi@curlpp@@QEAAXPEBVEasy@2@@Z
	?allocate@?$allocator@D@std@@QEAAPEAD_K@Z
	?allocate@?$allocator@U?$_List_node@U?$pair@PEBVEasy@curlpp@@UInfo@Multi@2@@std@@PEAX@std@@@std@@QEAAPEAU?$_List_node@U?$pair@PEBVEasy@curlpp@@UInfo@Multi@2@@std@@PEAX@2@_K@Z
	?allocate@?$allocator@U?$_List_node@V?$basic_string@DU?$char_traits@D@std@@V?$allocator@D@2@@std@@PEAX@std@@@std@@QEAAPEAU?$_List_node@V?$basic_string@DU?$char_traits@D@std@@V?$allocator@D@2@@std@@PEAX@2@_K@Z
	?allocate@?$allocator@U?$_List_node@V?$clone_ptr@VFormPart@curlpp@@@utilspp@@PEAX@std@@@std@@QEAAPEAU?$_List_node@V?$clone_ptr@VFormPart@curlpp@@@utilspp@@PEAX@2@_K@Z
	?allocate@?$allocator@U?$_Tree_node@U?$pair@$$CBW4CURLoption@@PEAVOptionBase@curlpp@@@std@@PEAX@std@@@std@@QEAAPEAU?$_Tree_node@U?$pair@$$CBW4CURLoption@@PEAVOptionBase@curlpp@@@std@@PEAX@2@_K@Z
	?allocate@?$allocator@U?$_Tree_node@U?$pair@QEAXPEBVEasy@curlpp@@@std@@PEAX@std@@@std@@QEAAPEAU?$_Tree_node@U?$pair@QEAXPEBVEasy@curlpp@@@std@@PEAX@2@_K@Z
	?assign@?$_Narrow_char_traits@DH@std@@SAXAEADAEBD@Z
	?assign@?$basic_string@DU?$char_traits@D@std@@V?$allocator@D@2@@std@@QEAAAEAV12@QEBD@Z
	?assign@?$basic_string@DU?$char_traits@D@std@@V?$allocator@D@2@@std@@QEAAAEAV12@QEBD_K@Z
	?back@?$list@V?$clone_ptr@VFormPart@curlpp@@@utilspp@@V?$allocator@V?$clone_ptr@VFormPart@curlpp@@@utilspp@@@std@@@std@@QEAAAEAV?$clone_ptr@VFormPart@curlpp@@@utilspp@@XZ
	?begin@?$_Tree@V?$_Tmap_traits@PEAXPEBVEasy@curlpp@@U?$less@PEAX@std@@V?$allocator@U?$pair@QEAXPEBVEasy@curlpp@@@std@@@4@$0A@@std@@@std@@QEAA?AV?$_Tree_iterator@V?$_Tree_val@U?$_Tree_simple_types@U?$pair@QEAXPEBVEasy@curlpp@@@std@@@std@@@std@@@2@XZ
	?begin@?$_Tree@V?$_Tmap_traits@W4CURLoption@@PEAVOptionBase@curlpp@@U?$less@W4CURLoption@@@std@@V?$allocator@U?$pair@$$CBW4CURLoption@@PEAVOptionBase@curlpp@@@std@@@5@$0A@@std@@@std@@QEAA?AV?$_Tree_iterator@V?$_Tree_val@U?$_Tree_simple_types@U?$pair@$$CBW4CURLoption@@PEAVOptionBase@curlpp@@@std@@@std@@@std@@@2@XZ
	?begin@?$_Tree@V?$_Tmap_traits@W4CURLoption@@PEAVOptionBase@curlpp@@U?$less@W4CURLoption@@@std@@V?$allocator@U?$pair@$$CBW4CURLoption@@PEAVOptionBase@curlpp@@@std@@@5@$0A@@std@@@std@@QEBA?AV?$_Tree_const_iterator@V?$_Tree_val@U?$_Tree_simple_types@U?$pair@$$CBW4CURLoption@@PEAVOptionBase@curlpp@@@std@@@std@@@std@@@2@XZ
	?begin@?$list@V?$basic_string@DU?$char_traits@D@std@@V?$allocator@D@2@@std@@V?$allocator@V?$basic_string@DU?$char_traits@D@std@@V?$allocator@D@2@@std@@@2@@std@@QEAA?AV?$_List_iterator@V?$_List_val@U?$_List_simple_types@V?$basic_string@DU?$char_traits@D@std@@V?$allocator@D@2@@std@@@std@@@std@@@2@XZ
	?begin@?$list@V?$basic_string@DU?$char_traits@D@std@@V?$allocator@D@2@@std@@V?$allocator@V?$basic_string@DU?$char_traits@D@std@@V?$allocator@D@2@@std@@@2@@std@@QEBA?AV?$_List_const_iterator@V?$_List_val@U?$_List_simple_types@V?$basic_string@DU?$char_traits@D@std@@V?$allocator@D@2@@std@@@std@@@std@@@2@XZ
	?begin@?$list@V?$clone_ptr@VFormPart@curlpp@@@utilspp@@V?$allocator@V?$clone_ptr@VFormPart@curlpp@@@utilspp@@@std@@@std@@QEAA?AV?$_List_iterator@V?$_List_val@U?$_List_simple_types@V?$clone_ptr@VFormPart@curlpp@@@utilspp@@@std@@@std@@@2@XZ
	?begin@?$list@V?$clone_ptr@VFormPart@curlpp@@@utilspp@@V?$allocator@V?$clone_ptr@VFormPart@curlpp@@@utilspp@@@std@@@std@@QEBA?AV?$_List_const_iterator@V?$_List_val@U?$_List_simple_types@V?$clone_ptr@VFormPart@curlpp@@@utilspp@@@std@@@std@@@2@XZ
	?cHttpPost@HttpPost@curlpp@@QEBAPEAUcurl_httppost@@XZ
	?c_str@?$basic_string@DU?$char_traits@D@std@@V?$allocator@D@2@@std@@QEBAPEBDXZ
	?clear@?$Option@PEAV?$basic_ostream@DU?$char_traits@D@std@@@std@@@curlpp@@UEAAXXZ
	?clear@?$_Tree@V?$_Tmap_traits@PEAXPEBVEasy@curlpp@@U?$less@PEAX@std@@V?$allocator@U?$pair@QEAXPEBVEasy@curlpp@@@std@@@4@$0A@@std@@@std@@QEAAXXZ
	?clear@?$list@V?$basic_string@DU?$char_traits@D@std@@V?$allocator@D@2@@std@@V?$allocator@V?$basic_string@DU?$char_traits@D@std@@V?$allocator@D@2@@std@@@2@@std@@QEAAXXZ
	?clear@?$list@V?$clone_ptr@VFormPart@curlpp@@@utilspp@@V?$allocator@V?$clone_ptr@VFormPart@curlpp@@@utilspp@@@std@@@std@@QEAAXXZ
	?clear@HttpPost@curlpp@@QEAAXXZ
	?clear@SList@internal@curlpp@@AEAAXXZ
	?clone@?$CallbackException@VLogicError@curlpp@@@curlpp@@UEAAPEAV12@XZ
	?clone@?$CallbackException@VUnknowException@curlpp@@@curlpp@@UEAAPEAV12@XZ
	?clone@?$OptionTrait@PEAV?$basic_ostream@DU?$char_traits@D@std@@@std@@$0CHBB@@curlpp@@UEBAPEAV12@XZ
	?clone@Content@FormParts@curlpp@@UEBAPEAV123@XZ
	?clone@CurlHandle@internal@curlpp@@QEBA?AV?$unique_ptr@VCurlHandle@internal@curlpp@@U?$default_delete@VCurlHandle@internal@curlpp@@@std@@@std@@XZ
	?clone@File@FormParts@curlpp@@UEBAPEAV123@XZ
	?constructFrom@SList@internal@curlpp@@AEAAXPEAUcurl_slist@@@Z
	?copy@?$_Char_traits@DH@std@@SAPEADQEADQEBD_K@Z
	?cslist@SList@internal@curlpp@@QEBAPEAUcurl_slist@@XZ
	?data@?$basic_string@DU?$char_traits@D@std@@V?$allocator@D@2@@std@@QEBAPEBDXZ
	?deallocate@?$_Default_allocator_traits@V?$allocator@U?$_List_node@U?$pair@PEBVEasy@curlpp@@UInfo@Multi@2@@std@@PEAX@std@@@std@@@std@@SAXAEAV?$allocator@U?$_List_node@U?$pair@PEBVEasy@curlpp@@UInfo@Multi@2@@std@@PEAX@std@@@2@QEAU?$_List_node@U?$pair@PEBVEasy@curlpp@@UInfo@Multi@2@@std@@PEAX@2@_K@Z
	?deallocate@?$_Default_allocator_traits@V?$allocator@U?$_List_node@V?$basic_string@DU?$char_traits@D@std@@V?$allocator@D@2@@std@@PEAX@std@@@std@@@std@@SAXAEAV?$allocator@U?$_List_node@V?$basic_string@DU?$char_traits@D@std@@V?$allocator@D@2@@std@@PEAX@std@@@2@QEAU?$_List_node@V?$basic_string@DU?$char_traits@D@std@@V?$allocator@D@2@@std@@PEAX@2@_K@Z
	?deallocate@?$_Default_allocator_traits@V?$allocator@U?$_List_node@V?$clone_ptr@VFormPart@curlpp@@@utilspp@@PEAX@std@@@std@@@std@@SAXAEAV?$allocator@U?$_List_node@V?$clone_ptr@VFormPart@curlpp@@@utilspp@@PEAX@std@@@2@QEAU?$_List_node@V?$clone_ptr@VFormPart@curlpp@@@utilspp@@PEAX@2@_K@Z
	?deallocate@?$_Default_allocator_traits@V?$allocator@U?$_Tree_node@U?$pair@$$CBW4CURLoption@@PEAVOptionBase@curlpp@@@std@@PEAX@std@@@std@@@std@@SAXAEAV?$allocator@U?$_Tree_node@U?$pair@$$CBW4CURLoption@@PEAVOptionBase@curlpp@@@std@@PEAX@std@@@2@QEAU?$_Tree_node@U?$pair@$$CBW4CURLoption@@PEAVOptionBase@curlpp@@@std@@PEAX@2@_K@Z
	?deallocate@?$_Default_allocator_traits@V?$allocator@U?$_Tree_node@U?$pair@QEAXPEBVEasy@curlpp@@@std@@PEAX@std@@@std@@@std@@SAXAEAV?$allocator@U?$_Tree_node@U?$pair@QEAXPEBVEasy@curlpp@@@std@@PEAX@std@@@2@QEAU?$_Tree_node@U?$pair@QEAXPEBVEasy@curlpp@@@std@@PEAX@2@_K@Z
	?deallocate@?$allocator@D@std@@QEAAXQEAD_K@Z
	?deallocate@?$allocator@U?$_List_node@U?$pair@PEBVEasy@curlpp@@UInfo@Multi@2@@std@@PEAX@std@@@std@@QEAAXQEAU?$_List_node@U?$pair@PEBVEasy@curlpp@@UInfo@Multi@2@@std@@PEAX@2@_K@Z
	?deallocate@?$allocator@U?$_List_node@V?$basic_string@DU?$char_traits@D@std@@V?$allocator@D@2@@std@@PEAX@std@@@std@@QEAAXQEAU?$_List_node@V?$basic_string@DU?$char_traits@D@std@@V?$allocator@D@2@@std@@PEAX@2@_K@Z
	?deallocate@?$allocator@U?$_List_node@V?$clone_ptr@VFormPart@curlpp@@@utilspp@@PEAX@std@@@std@@QEAAXQEAU?$_List_node@V?$clone_ptr@VFormPart@curlpp@@@utilspp@@PEAX@2@_K@Z
	?deallocate@?$allocator@U?$_Tree_node@U?$pair@$$CBW4CURLoption@@PEAVOptionBase@curlpp@@@std@@PEAX@std@@@std@@QEAAXQEAU?$_Tree_node@U?$pair@$$CBW4CURLoption@@PEAVOptionBase@curlpp@@@std@@PEAX@2@_K@Z
	?deallocate@?$allocator@U?$_Tree_node@U?$pair@QEAXPEBVEasy@curlpp@@@std@@PEAX@std@@@std@@QEAAXQEAU?$_Tree_node@U?$pair@QEAXPEBVEasy@curlpp@@@std@@PEAX@2@_K@Z
	?empty@?$_Tree@V?$_Tmap_traits@PEAXPEBVEasy@curlpp@@U?$less@PEAX@std@@V?$allocator@U?$pair@QEAXPEBVEasy@curlpp@@@std@@@4@$0A@@std@@@std@@QEBA_NXZ
	?empty@?$basic_string@DU?$char_traits@D@std@@V?$allocator@D@2@@std@@QEBA_NXZ
	?end@?$_Tree@V?$_Tmap_traits@W4CURLoption@@PEAVOptionBase@curlpp@@U?$less@W4CURLoption@@@std@@V?$allocator@U?$pair@$$CBW4CURLoption@@PEAVOptionBase@curlpp@@@std@@@5@$0A@@std@@@std@@QEAA?AV?$_Tree_iterator@V?$_Tree_val@U?$_Tree_simple_types@U?$pair@$$CBW4CURLoption@@PEAVOptionBase@curlpp@@@std@@@std@@@std@@@2@XZ
	?end@?$_Tree@V?$_Tmap_traits@W4CURLoption@@PEAVOptionBase@curlpp@@U?$less@W4CURLoption@@@std@@V?$allocator@U?$pair@$$CBW4CURLoption@@PEAVOptionBase@curlpp@@@std@@@5@$0A@@std@@@std@@QEBA?AV?$_Tree_const_iterator@V?$_Tree_val@U?$_Tree_simple_types@U?$pair@$$CBW4CURLoption@@PEAVOptionBase@curlpp@@@std@@@std@@@std@@@2@XZ
	?end@?$list@V?$basic_string@DU?$char_traits@D@std@@V?$allocator@D@2@@std@@V?$allocator@V?$basic_string@DU?$char_traits@D@std@@V?$allocator@D@2@@std@@@2@@std@@QEAA?AV?$_List_iterator@V?$_List_val@U?$_List_simple_types@V?$basic_string@DU?$char_traits@D@std@@V?$allocator@D@2@@std@@@std@@@std@@@2@XZ
	?end@?$list@V?$basic_string@DU?$char_traits@D@std@@V?$allocator@D@2@@std@@V?$allocator@V?$basic_string@DU?$char_traits@D@std@@V?$allocator@D@2@@std@@@2@@std@@QEBA?AV?$_List_const_iterator@V?$_List_val@U?$_List_simple_types@V?$basic_string@DU?$char_traits@D@std@@V?$allocator@D@2@@std@@@std@@@std@@@2@XZ
	?end@?$list@V?$clone_ptr@VFormPart@curlpp@@@utilspp@@V?$allocator@V?$clone_ptr@VFormPart@curlpp@@@utilspp@@@std@@@std@@QEAA?AV?$_List_iterator@V?$_List_val@U?$_List_simple_types@V?$clone_ptr@VFormPart@curlpp@@@utilspp@@@std@@@std@@@2@XZ
	?end@?$list@V?$clone_ptr@VFormPart@curlpp@@@utilspp@@V?$allocator@V?$clone_ptr@VFormPart@curlpp@@@utilspp@@@std@@@std@@QEBA?AV?$_List_const_iterator@V?$_List_val@U?$_List_simple_types@V?$clone_ptr@VFormPart@curlpp@@@utilspp@@@std@@@std@@@2@XZ
	?eof@?$_Narrow_char_traits@DH@std@@SAHXZ
	?eq_int_type@?$_Narrow_char_traits@DH@std@@SA_NHH@Z
	?erase@?$_Tree@V?$_Tmap_traits@PEAXPEBVEasy@curlpp@@U?$less@PEAX@std@@V?$allocator@U?$pair@QEAXPEBVEasy@curlpp@@@std@@@4@$0A@@std@@@std@@QEAA_KAEBQEAX@Z
	?errorBuffer@CurlHandle@internal@curlpp@@AEAAXPEAD@Z
	?escape@curlpp@@YA?AV?$basic_string@DU?$char_traits@D@std@@V?$allocator@D@2@@std@@AEBV23@@Z
	?executeDebugFunctor@CurlHandle@internal@curlpp@@QEAAHW4curl_infotype@@PEAD_K@Z
	?executeHeaderFunctor@CurlHandle@internal@curlpp@@QEAA_KPEAD_K1@Z
	?executeProgressFunctor@CurlHandle@internal@curlpp@@QEAAHNNNN@Z
	?executeReadFunctor@CurlHandle@internal@curlpp@@QEAA_KPEAD_K1@Z
	?executeSslCtxFunctor@CurlHandle@internal@curlpp@@QEAA?AW4CURLcode@@PEAX@Z
	?executeWriteFunctor@CurlHandle@internal@curlpp@@QEAA_KPEAD_K1@Z
	?fdset@Multi@curlpp@@QEAAXPEAUfd_set@@00PEAH@Z
	?find@?$_Tree@V?$_Tmap_traits@W4CURLoption@@PEAVOptionBase@curlpp@@U?$less@W4CURLoption@@@std@@V?$allocator@U?$pair@$$CBW4CURLoption@@PEAVOptionBase@curlpp@@@std@@@5@$0A@@std@@@std@@QEAA?AV?$_Tree_iterator@V?$_Tree_val@U?$_Tree_simple_types@U?$pair@$$CBW4CURLoption@@PEAVOptionBase@curlpp@@@std@@@std@@@std@@@2@AEBW4CURLoption@@@Z
	?find@?$_Tree@V?$_Tmap_traits@W4CURLoption@@PEAVOptionBase@curlpp@@U?$less@W4CURLoption@@@std@@V?$allocator@U?$pair@$$CBW4CURLoption@@PEAVOptionBase@curlpp@@@std@@@5@$0A@@std@@@std@@QEBA?AV?$_Tree_const_iterator@V?$_Tree_val@U?$_Tree_simple_types@U?$pair@$$CBW4CURLoption@@PEAVOptionBase@curlpp@@@std@@@std@@@std@@@2@AEBW4CURLoption@@@Z
	?get@?$InfoTypeConverter@J@curlpp@@SAXAEBVEasy@2@W4CURLINFO@@AEAJ@Z
	?get@?$InfoTypeConverter@N@curlpp@@SAXAEBVEasy@2@W4CURLINFO@@AEAN@Z
	?get@?$InfoTypeConverter@V?$basic_string@DU?$char_traits@D@std@@V?$allocator@D@2@@std@@@curlpp@@SAXAEBVEasy@2@W4CURLINFO@@AEAV?$basic_string@DU?$char_traits@D@std@@V?$allocator@D@2@@std@@@Z
	?get@?$InfoTypeConverter@V?$list@V?$basic_string@DU?$char_traits@D@std@@V?$allocator@D@2@@std@@V?$allocator@V?$basic_string@DU?$char_traits@D@std@@V?$allocator@D@2@@std@@@2@@std@@@curlpp@@SAXAEBVEasy@2@W4CURLINFO@@AEAV?$list@V?$basic_string@DU?$char_traits@D@std@@V?$allocator@D@2@@std@@V?$allocator@V?$basic_string@DU?$char_traits@D@std@@V?$allocator@D@2@@std@@@2@@std@@@Z
	?get@?$unique_ptr@VCurlHandle@internal@curlpp@@U?$default_delete@VCurlHandle@internal@curlpp@@@std@@@std@@QEBAPEAVCurlHandle@internal@curlpp@@XZ
	?getCurlHandle@Easy@curlpp@@QEBAAEBVCurlHandle@internal@2@XZ
	?getHandle@CurlHandle@internal@curlpp@@QEBAPEAXXZ
	?getHandle@Easy@curlpp@@QEBAPEAXXZ
	?getHandleOptionValue@?$OptionContainer@PEAV?$basic_ostream@DU?$char_traits@D@std@@@std@@@internal@curlpp@@QEAAPEAV?$basic_ostream@DU?$char_traits@D@std@@@std@@XZ
	?getList@HttpPost@curlpp@@QEAA?AV?$list@V?$clone_ptr@VFormPart@curlpp@@@utilspp@@V?$allocator@V?$clone_ptr@VFormPart@curlpp@@@utilspp@@@std@@@std@@XZ
	?getOpt@Easy@curlpp@@QEBAXAEAVOptionBase@2@@Z
	?getOpt@Easy@curlpp@@QEBAXPEAVOptionBase@2@@Z
	?getOpt@OptionList@internal@curlpp@@UEBAXPEAVOptionBase@3@@Z
	?getOption@OptionBase@curlpp@@QEBA?AW4CURLoption@@XZ
	?getValue@?$Option@PEAV?$basic_ostream@DU?$char_traits@D@std@@@std@@@curlpp@@QEBAPEAV?$basic_ostream@DU?$char_traits@D@std@@@std@@XZ
	?getValue@?$OptionContainer@PEAV?$basic_ostream@DU?$char_traits@D@std@@@std@@@internal@curlpp@@QEAAPEAV?$basic_ostream@DU?$char_traits@D@std@@@std@@XZ
	?get_deleter@?$unique_ptr@VCurlHandle@internal@curlpp@@U?$default_delete@VCurlHandle@internal@curlpp@@@std@@@std@@QEAAAEAU?$default_delete@VCurlHandle@internal@curlpp@@@2@XZ
	?getdate@curlpp@@YA_JAEBV?$basic_string@DU?$char_traits@D@std@@V?$allocator@D@2@@std@@PEA_J@Z
	?getenv@curlpp@@YA?AV?$basic_string@DU?$char_traits@D@std@@V?$allocator@D@2@@std@@AEBV23@@Z
	?info@Multi@curlpp@@QEAA?AV?$list@U?$pair@PEBVEasy@curlpp@@UInfo@Multi@2@@std@@V?$allocator@U?$pair@PEBVEasy@curlpp@@UInfo@Multi@2@@std@@@2@@std@@XZ
	?initialize@curlpp@@YAXJ@Z
	?insert@OptionList@internal@curlpp@@AEAAXAEBV?$map@W4CURLoption@@PEAVOptionBase@curlpp@@U?$less@W4CURLoption@@@std@@V?$allocator@U?$pair@$$CBW4CURLoption@@PEAVOptionBase@curlpp@@@std@@@5@@std@@@Z
	?length@?$_Narrow_char_traits@DH@std@@SA_KQEBD@Z
	?libcurlLogicAssert@curlpp@@YAXAEBV?$basic_string@DU?$char_traits@D@std@@V?$allocator@D@2@@std@@W4CURLcode@@@Z
	?libcurlLogicAssert@curlpp@@YAXPEBDW4CURLcode@@@Z
	?libcurlRuntimeAssert@curlpp@@YAXAEBV?$basic_string@DU?$char_traits@D@std@@V?$allocator@D@2@@std@@W4CURLcode@@@Z
	?libcurlRuntimeAssert@curlpp@@YAXPEBDW4CURLcode@@@Z
	?libcurlVersion@curlpp@@YA?AV?$basic_string@DU?$char_traits@D@std@@V?$allocator@D@2@@std@@XZ
	?list@SList@internal@curlpp@@QEAA?AV?$list@V?$basic_string@DU?$char_traits@D@std@@V?$allocator@D@2@@std@@V?$allocator@V?$basic_string@DU?$char_traits@D@std@@V?$allocator@D@2@@std@@@2@@std@@XZ
	?logicAssert@curlpp@@YAXAEBV?$basic_string@DU?$char_traits@D@std@@V?$allocator@D@2@@std@@_N@Z
	?logicAssert@curlpp@@YAXPEBD_N@Z
	?max_size@?$_Default_allocator_traits@V?$allocator@D@std@@@std@@SA_KAEBV?$allocator@D@2@@Z
	?max_size@?$_Default_allocator_traits@V?$allocator@U?$_List_node@U?$pair@PEBVEasy@curlpp@@UInfo@Multi@2@@std@@PEAX@std@@@std@@@std@@SA_KAEBV?$allocator@U?$_List_node@U?$pair@PEBVEasy@curlpp@@UInfo@Multi@2@@std@@PEAX@std@@@2@@Z
	?max_size@?$_Default_allocator_traits@V?$allocator@U?$_List_node@V?$basic_string@DU?$char_traits@D@std@@V?$allocator@D@2@@std@@PEAX@std@@@std@@@std@@SA_KAEBV?$allocator@U?$_List_node@V?$basic_string@DU?$char_traits@D@std@@V?$allocator@D@2@@std@@PEAX@std@@@2@@Z
	?max_size@?$_Default_allocator_traits@V?$allocator@U?$_List_node@V?$clone_ptr@VFormPart@curlpp@@@utilspp@@PEAX@std@@@std@@@std@@SA_KAEBV?$allocator@U?$_List_node@V?$clone_ptr@VFormPart@curlpp@@@utilspp@@PEAX@std@@@2@@Z
	?max_size@?$_Default_allocator_traits@V?$allocator@U?$_Tree_node@U?$pair@$$CBW4CURLoption@@PEAVOptionBase@curlpp@@@std@@PEAX@std@@@std@@@std@@SA_KAEBV?$allocator@U?$_Tree_node@U?$pair@$$CBW4CURLoption@@PEAVOptionBase@curlpp@@@std@@PEAX@std@@@2@@Z
	?max_size@?$_Default_allocator_traits@V?$allocator@U?$_Tree_node@U?$pair@QEAXPEBVEasy@curlpp@@@std@@PEAX@std@@@std@@@std@@SA_KAEBV?$allocator@U?$_Tree_node@U?$pair@QEAXPEBVEasy@curlpp@@@std@@PEAX@std@@@2@@Z
	?max_size@?$_Tree@V?$_Tmap_traits@PEAXPEBVEasy@curlpp@@U?$less@PEAX@std@@V?$allocator@U?$pair@QEAXPEBVEasy@curlpp@@@std@@@4@$0A@@std@@@std@@QEBA_KXZ
	?max_size@?$_Tree@V?$_Tmap_traits@W4CURLoption@@PEAVOptionBase@curlpp@@U?$less@W4CURLoption@@@std@@V?$allocator@U?$pair@$$CBW4CURLoption@@PEAVOptionBase@curlpp@@@std@@@5@$0A@@std@@@std@@QEBA_KXZ
	?max_size@?$basic_string@DU?$char_traits@D@std@@V?$allocator@D@2@@std@@QEBA_KXZ
	?max_size@?$list@U?$pair@PEBVEasy@curlpp@@UInfo@Multi@2@@std@@V?$allocator@U?$pair@PEBVEasy@curlpp@@UInfo@Multi@2@@std@@@2@@std@@QEBA_KXZ
	?max_size@?$list@V?$basic_string@DU?$char_traits@D@std@@V?$allocator@D@2@@std@@V?$allocator@V?$basic_string@DU?$char_traits@D@std@@V?$allocator@D@2@@std@@@2@@std@@QEBA_KXZ
	?max_size@?$list@V?$clone_ptr@VFormPart@curlpp@@@utilspp@@V?$allocator@V?$clone_ptr@VFormPart@curlpp@@@utilspp@@@std@@@std@@QEBA_KXZ
	?move@?$_Char_traits@DH@std@@SAPEADQEADQEBD_K@Z
	?perform@CurlHandle@internal@curlpp@@QEAAXXZ
	?perform@Easy@curlpp@@QEAAXXZ
	?perform@Multi@curlpp@@QEAA_NPEAH@Z
	?pointer_to@?$pointer_traits@PEAU?$pair@QEAXPEBVEasy@curlpp@@@std@@@std@@SAPEAU?$pair@QEAXPEBVEasy@curlpp@@@2@AEAU32@@Z
	?pointer_to@?$pointer_traits@PEBU?$pair@$$CBW4CURLoption@@PEAVOptionBase@curlpp@@@std@@@std@@SAPEBU?$pair@$$CBW4CURLoption@@PEAVOptionBase@curlpp@@@2@AEBU32@@Z
	?push_back@?$list@U?$pair@PEBVEasy@curlpp@@UInfo@Multi@2@@std@@V?$allocator@U?$pair@PEBVEasy@curlpp@@UInfo@Multi@2@@std@@@2@@std@@QEAAX$$QEAU?$pair@PEBVEasy@curlpp@@UInfo@Multi@2@@2@@Z
	?push_back@?$list@V?$basic_string@DU?$char_traits@D@std@@V?$allocator@D@2@@std@@V?$allocator@V?$basic_string@DU?$char_traits@D@std@@V?$allocator@D@2@@std@@@2@@std@@QEAAX$$QEAV?$basic_string@DU?$char_traits@D@std@@V?$allocator@D@2@@2@@Z
	?push_back@?$list@V?$clone_ptr@VFormPart@curlpp@@@utilspp@@V?$allocator@V?$clone_ptr@VFormPart@curlpp@@@utilspp@@@std@@@std@@QEAAXAEBV?$clone_ptr@VFormPart@curlpp@@@utilspp@@@Z
	?release@?$unique_ptr@VCurlHandle@internal@curlpp@@U?$default_delete@VCurlHandle@internal@curlpp@@@std@@@std@@QEAAPEAVCurlHandle@internal@curlpp@@XZ
	?release@?$unique_ptr@VOptionBase@curlpp@@U?$default_delete@VOptionBase@curlpp@@@std@@@std@@QEAAPEAVOptionBase@curlpp@@XZ
	?remove@Multi@curlpp@@QEAAXPEBVEasy@2@@Z
	?reset@CurlHandle@internal@curlpp@@QEAAXXZ
	?reset@Easy@curlpp@@UEAAXXZ
	?runtimeAssert@curlpp@@YAXAEBV?$basic_string@DU?$char_traits@D@std@@V?$allocator@D@2@@std@@_N@Z
	?runtimeAssert@curlpp@@YAXPEBD_N@Z
	?select_on_container_copy_construction@?$_Default_allocator_traits@V?$allocator@D@std@@@std@@SA?AV?$allocator@D@2@AEBV32@@Z
	?select_on_container_copy_construction@?$_Default_allocator_traits@V?$allocator@U?$_List_node@V?$basic_string@DU?$char_traits@D@std@@V?$allocator@D@2@@std@@PEAX@std@@@std@@@std@@SA?AV?$allocator@U?$_List_node@V?$basic_string@DU?$char_traits@D@std@@V?$allocator@D@2@@std@@PEAX@std@@@2@AEBV32@@Z
	?set@SList@internal@curlpp@@AEAAXAEBV?$list@V?$basic_string@DU?$char_traits@D@std@@V?$allocator@D@2@@std@@V?$allocator@V?$basic_string@DU?$char_traits@D@std@@V?$allocator@D@2@@std@@@2@@std@@@Z
	?setDebugFunctor@CurlHandle@internal@curlpp@@QEAAXV?$function@$$A6AHW4curl_infotype@@PEAD_K@Z@std@@@Z
	?setException@CurlHandle@internal@curlpp@@QEAAXPEAVCallbackExceptionBase@3@@Z
	?setHeaderFunctor@CurlHandle@internal@curlpp@@QEAAXV?$function@$$A6A_KPEAD_K1@Z@std@@@Z
	?setOpt@?$OptionSetter@PEAU_iobuf@@$0CHBB@@internal@curlpp@@SAXPEAVCurlHandle@23@PEAU_iobuf@@@Z
	?setOpt@?$OptionSetter@PEAU_iobuf@@$0CHBJ@@internal@curlpp@@SAXPEAVCurlHandle@23@PEAU_iobuf@@@Z
	?setOpt@?$OptionSetter@PEAV?$basic_istream@DU?$char_traits@D@std@@@std@@$0CHBJ@@internal@curlpp@@SAXPEAVCurlHandle@23@PEAV?$basic_istream@DU?$char_traits@D@std@@@std@@@Z
	?setOpt@?$OptionSetter@PEAV?$basic_ostream@DU?$char_traits@D@std@@@std@@$0CHBB@@internal@curlpp@@SAXPEAVCurlHandle@23@PEAV?$basic_ostream@DU?$char_traits@D@std@@@std@@@Z
	?setOpt@?$OptionSetter@V?$function@$$A6A?AW4CURLcode@@PEAX@Z@std@@$0EOIM@@internal@curlpp@@SAXPEAVCurlHandle@23@AEAV?$function@$$A6A?AW4CURLcode@@PEAX@Z@std@@@Z
	?setOpt@?$OptionSetter@V?$function@$$A6AHNNNN@Z@std@@$0EOFI@@internal@curlpp@@SAXPEAVCurlHandle@23@AEAV?$function@$$A6AHNNNN@Z@std@@@Z
	?setOpt@?$OptionSetter@V?$function@$$A6AHW4curl_infotype@@PEAD_K@Z@std@@$0EOHO@@internal@curlpp@@SAXPEAVCurlHandle@23@AEAV?$function@$$A6AHW4curl_infotype@@PEAD_K@Z@std@@@Z
	?setOpt@?$OptionSetter@V?$function@$$A6A_KPEAD_K1@Z@std@@$0EOCL@@internal@curlpp@@SAXPEAVCurlHandle@23@AEAV?$function@$$A6A_KPEAD_K1@Z@std@@@Z
	?setOpt@?$OptionSetter@V?$function@$$A6A_KPEAD_K1@Z@std@@$0EOCM@@internal@curlpp@@SAXPEAVCurlHandle@23@AEAV?$function@$$A6A_KPEAD_K1@Z@std@@@Z
	?setOpt@?$OptionSetter@V?$function@$$A6A_KPEAD_K1@Z@std@@$0EOGP@@internal@curlpp@@SAXPEAVCurlHandle@23@AEAV?$function@$$A6A_KPEAD_K1@Z@std@@@Z
	?setOpt@?$OptionSetter@V?$list@V?$clone_ptr@VFormPart@curlpp@@@utilspp@@V?$allocator@V?$clone_ptr@VFormPart@curlpp@@@utilspp@@@std@@@std@@$0CHCI@@internal@curlpp@@SAXPEAVCurlHandle@23@AEBVHttpPost@3@@Z
	?setOpt@Easy@curlpp@@EEAAXAEBVOptionList@internal@2@@Z
	?setOpt@Easy@curlpp@@UEAAXAEBVOptionBase@2@@Z
	?setOpt@Easy@curlpp@@UEAAXPEAVOptionBase@2@@Z
	?setOpt@Easy@curlpp@@UEAAXV?$unique_ptr@VOptionBase@curlpp@@U?$default_delete@VOptionBase@curlpp@@@std@@@std@@@Z
	?setOpt@OptionList@internal@curlpp@@UEAAXAEBV123@@Z
	?setOpt@OptionList@internal@curlpp@@UEAAXAEBVOptionBase@3@@Z
	?setOpt@OptionList@internal@curlpp@@UEAAXPEAVOptionBase@3@@Z
	?setProgressFunctor@CurlHandle@internal@curlpp@@QEAAXV?$function@$$A6AHNNNN@Z@std@@@Z
	?setReadFunctor@CurlHandle@internal@curlpp@@QEAAXV?$function@$$A6A_KPEAD_K1@Z@std@@@Z
	?setSslCtxFunctor@CurlHandle@internal@curlpp@@QEAAXV?$function@$$A6A?AW4CURLcode@@PEAX@Z@std@@@Z
	?setValue@?$Option@PEAV?$basic_ostream@DU?$char_traits@D@std@@@std@@@curlpp@@QEAAXPEAV?$basic_ostream@DU?$char_traits@D@std@@@std@@@Z
	?setValue@?$OptionContainer@PEAV?$basic_ostream@DU?$char_traits@D@std@@@std@@@internal@curlpp@@QEAAXPEAV?$basic_ostream@DU?$char_traits@D@std@@@std@@@Z
	?setWriteFunctor@CurlHandle@internal@curlpp@@QEAAXV?$function@$$A6A_KPEAD_K1@Z@std@@@Z
	?size@?$basic_string@DU?$char_traits@D@std@@V?$allocator@D@2@@std@@QEBA_KXZ
	?swap@?$function@$$A6A?AW4CURLcode@@PEAX@Z@std@@QEAAXAEAV12@@Z
	?swap@?$function@$$A6AHNNNN@Z@std@@QEAAXAEAV12@@Z
	?swap@?$function@$$A6AHW4curl_infotype@@PEAD_K@Z@std@@QEAAXAEAV12@@Z
	?swap@?$function@$$A6A_KPEAD_K1@Z@std@@QEAAXAEAV12@@Z
	?terminate@curlpp@@YAXXZ
	?throwException@CurlHandle@internal@curlpp@@QEAAXXZ
	?throwMe@?$CallbackException@VLogicError@curlpp@@@curlpp@@UEAAXXZ
	?throwMe@?$CallbackException@VUnknowException@curlpp@@@curlpp@@UEAAXXZ
	?unescape@curlpp@@YA?AV?$basic_string@DU?$char_traits@D@std@@V?$allocator@D@2@@std@@AEBV23@@Z
	?update@SList@internal@curlpp@@AEAAXXZ
	?updateHandleToMe@?$OptionTrait@PEAV?$basic_ostream@DU?$char_traits@D@std@@@std@@$0CHBB@@curlpp@@EEBAXPEAVCurlHandle@internal@2@@Z
	?updateMeToOption@?$Option@PEAV?$basic_ostream@DU?$char_traits@D@std@@@std@@@curlpp@@UEAAXAEBVOptionBase@2@@Z
	?what@exception@std@@UEBAPEBDXZ
	?whatCode@LibcurlLogicError@curlpp@@QEBA?AW4CURLcode@@XZ
	?whatCode@LibcurlRuntimeError@curlpp@@QEBA?AW4CURLcode@@XZ
